L166 LINKER/LOCATER V5.25                                                               07/13/2019  10:17:21  PAGE 1


L166 LINKER/LOCATER V5.25, INVOKED BY:
C:\PROGRAM FILES\KEIL4INF\C166\BIN\L166.EXE ..\bin\ledCtrl.obj, ..\bin\main.obj, ..\bin\task.obj, ..\bin\led.obj, ..\bin
>> \canSrv.obj, ..\bin\ccu60.obj, ..\bin\clk.obj, ..\bin\pwm.obj, ..\bin\SCS.obj, ..\bin\START_V3.obj, ..\bin\io.obj, ..
>> \bin\can.obj TO ..\bin\ambientLight PRINT (.\ambientLight.m66) CLASSES (ICODE (0XC00000-0XC0FFFF), NCODE (0XC00000-0X
>> C0FFFF), FCONST (0XC00000-0XCBFFFF), HCONST (0XC00000-0XCBFFFF), XCONST (0XC00000-0XCBFFFF), NCONST (0XC04000-0XC07FF
>> F), NDATA (0XE00000-0XE03FFF), NDATA0 (0XE00000-0XE03FFF), SDATA (0XC000-0XDFFF, 0XF600-0XFDFF), SDATA0 (0XC000-0XDFF
>> F, 0XF600-0XFDFF), IDATA (0XF600-0XFDFF), IDATA0 (0XF600-0XFDFF), FDATA (0XA000-0XDFFF, 0XE00000-0XE0FFFF), FDATA0 (0
>> XA000-0XDFFF, 0XE00000-0XE0FFFF), HDATA (0XA000-0XDFFF, 0XE00000-0XE0FFFF), HDATA0 (0XA000-0XDFFF, 0XE00000-0XE0FFFF)
>> , XDATA (0XA000-0XDFFF, 0XE00000-0XE0FFFF), XDATA0 (0XA000-0XDFFF, 0XE00000-0XE0FFFF)) CINITTAB (0XC00000-0XCBFFFF)


CPU TYPE:     C167 or derivative
CPU MODE:     SEGMENTED
MEMORY MODEL: SMALL WITH FLOATING POINT ARITHMETIC


INPUT MODULES INCLUDED:
  ..\bin\ledCtrl.obj (LEDCTRL)
         COMMENT TYPE 128: C166 V7.00
  ..\bin\main.obj (MAIN)
         COMMENT TYPE 128: C166 V7.00
  ..\bin\task.obj (TASK)
         COMMENT TYPE 128: C166 V7.00
  ..\bin\led.obj (LED)
         COMMENT TYPE 128: C166 V7.00
  ..\bin\canSrv.obj (CANSRV)
         COMMENT TYPE 128: C166 V7.00
  ..\bin\ccu60.obj (CCU60)
         COMMENT TYPE 128: C166 V7.00
  ..\bin\clk.obj (CLK)
         COMMENT TYPE 128: C166 V7.00
  ..\bin\pwm.obj (PWM)
         COMMENT TYPE 128: C166 V7.00
  ..\bin\SCS.obj (SCS)
         COMMENT TYPE 128: C166 V7.00
  ..\bin\START_V3.obj (?C_STARTUP)
         COMMENT TYPE 128: A166 V5.33
  ..\bin\io.obj (IO)
         COMMENT TYPE 128: C166 V7.00
  ..\bin\can.obj (CAN)
         COMMENT TYPE 128: C166 V7.00
  C:\PROGRAM FILES\KEIL4INF\C166\LIB\C167FPS.LIB (?C_FPADD)
         COMMENT TYPE 128: A166 V5.33
  C:\PROGRAM FILES\KEIL4INF\C166\LIB\C167FPS.LIB (?C_FPMUL)
         COMMENT TYPE 128: A166 V5.33
  C:\PROGRAM FILES\KEIL4INF\C166\LIB\C167FPS.LIB (?C_CASTF)
         COMMENT TYPE 128: A166 V5.33
  C:\PROGRAM FILES\KEIL4INF\C166\LIB\C167FPS.LIB (?C_FCAST)
         COMMENT TYPE 128: A166 V5.33
  C:\PROGRAM FILES\KEIL4INF\C166\LIB\C167FPS.LIB (?C_FPGETOPN)
         COMMENT TYPE 128: A166 V5.33
  C:\PROGRAM FILES\KEIL4INF\C166\LIB\C167S.LIB (?C_ENDINIT)
         COMMENT TYPE 128: A166 V5.33


INTERRUPT PROCEDURES OF MODULE:  ..\bin\ambientLight (LEDCTRL)


L166 LINKER/LOCATER V5.25                                                             07/13/2019  10:17:21  PAGE 2


INTERRUPT PROCEDURE                 INT  INTERRUPT NAME
=======================================================
CCU60_viNodeI0                       48  ---  
?C_RESET                              0  RESET
CAN_viSRN0                           64  ---  


MEMORY MAP OF MODULE:  ..\bin\ambientLight (LEDCTRL)


START     STOP      LENGTH    TYPE  RTYP  ALIGN  TGR  GRP  COMB  CLASS   SECTION NAME
=====================================================================================
00F600H   00F7FFH   000200H   DATA  REL   WORD   ---    4  PUBL  IDATA   ?C_SYSSTACK
00FC00H   00FC1FH   000020H   DATA  ---   BYTE   ---  ---  ---   *REG*   ?C_MAINREGISTERS
C00000H   C00003H   000004H   ---   ---   ---    ---  ---  ---   * INTVECTOR TABLE *
C00004H   C00097H   000094H   XDATA REL   WORD   ---  ---  GLOB  ---     ?C_INITSEC
C00098H   C000B1H   00001AH   CONST ABS   WORD   ---  ---  PRIV  ---     ?C_CLRMEMSEC
C000B2H   C000BDH   00000CH   CODE  REL   WORD   ---    1  PUBL  NCODE   ?PR?CANSRV
C000C0H   C000C3H   000004H   ---   ---   ---    ---  ---  ---   * INTVECTOR TABLE *
C000C4H   C000F9H   000036H   CODE  REL   WORD   ---    1  PUBL  NCODE   ?PR?TASK
C00100H   C00103H   000004H   ---   ---   ---    ---  ---  ---   * INTVECTOR TABLE *
C00104H   C00395H   000292H   CODE  REL   WORD   ---  ---  PRIV  ICODE   ?C_STARTUP_CODE
C00396H   C00E99H   000B04H   CODE  REL   WORD   ---    1  PUBL  NCODE   ?PR?LEDCTRL
C00E9AH   C01571H   0006D8H   CODE  REL   WORD   ---    1  PUBL  NCODE   ?PR?CAN
C01572H   C017F3H   000282H   CODE  REL   WORD   ---    1  PUBL  NCODE   ?C_LIB_CODE
C017F4H   C0194DH   00015AH   CODE  REL   WORD   ---    1  PUBL  NCODE   ?PR?SCS
C0194EH   C01A3FH   0000F2H   CODE  REL   WORD   ---    1  PUBL  NCODE   ?PR?LED
C01A40H   C01B21H   0000E2H   CODE  REL   WORD   ---    1  PUBL  NCODE   ?PR?MAIN
C01B22H   C01C03H   0000E2H   CODE  REL   WORD   ---    1  PUBL  NCODE   ?PR?CCU60
C01C04H   C01CD7H   0000D4H   CODE  REL   WORD   ---    1  PUBL  NCODE   ?PR?CLK
C01CD8H   C01D7BH   0000A4H   CODE  REL   WORD   ---    1  PUBL  NCODE   ?PR?PWM
C01D7CH   C01D85H   00000AH   CODE  REL   WORD   ---    1  PUBL  NCODE   ?PR?IO
C04000H   C04014H   000015H   DATA  REL   BYTE   ---    2  PUBL  NCONST  ?NC?LEDCTRL
E00000H   E001FFH   000200H   DATA  REL   WORD   ---    3  PUBL  NDATA   ?C_USERSTACK
E00200H   E0021FH   000020H   DATA  REL   WORD   ---    3  PUBL  NDATA   ?C_USERSTACK1
E00220H   E0023FH   000020H   DATA  REL   WORD   ---    3  PUBL  NDATA   ?C_USERSTACK2
E00240H   E00614H   0003D5H   DATA  REL   WORD   ---    3  PUBL  NDATA0  ?ND0?LED
E00615H   E00615H   000001H   DATA  REL   BYTE   ---    3  PUBL  NDATA0  ?ND0?TASK
E00616H   E0063BH   000026H   DATA  REL   WORD   ---    3  PUBL  NDATA0  ?ND0?LEDCTRL
E0063CH   E00655H   00001AH   DATA  REL   WORD   ---    3  PUBL  NDATA0  ?ND0?CCU60
E00656H   E0066BH   000016H   DATA  REL   WORD   ---    3  PUBL  NDATA0  ?ND0?CAN
E0066CH   E0067FH   000014H   DATA  REL   WORD   ---    3  PUBL  NDATA0  ?ND0?PWM



GROUP LIST OF MODULE:  ..\bin\ambientLight (LEDCTRL)


GROUP NAME                           TYPE  TGR  GRP  CLASS       SECTION NAME
=============================================================================
NCODE                                CODE  ---    1  NCODE       ?PR?LEDCTRL
                                                     NCODE       ?PR?MAIN
                                                     NCODE       ?PR?TASK
                                                     NCODE       ?PR?LED
                                                     NCODE       ?PR?CANSRV
                                                     NCODE       ?PR?CCU60
                                                     NCODE       ?PR?CLK
L166 LINKER/LOCATER V5.25                                                             07/13/2019  10:17:21  PAGE 3


                                                     NCODE       ?PR?PWM
                                                     NCODE       ?PR?SCS
                                                     NCODE       ?PR?IO
                                                     NCODE       ?PR?CAN
                                                     NCODE       ?C_LIB_CODE

NCONST                               DATA  ---    2  NCONST      ?NC?LEDCTRL

NDATA                                DATA  ---    3  NDATA0      ?ND0?LEDCTRL
                                                     NDATA0      ?ND0?TASK
                                                     NDATA0      ?ND0?LED
                                                     NDATA0      ?ND0?CCU60
                                                     NDATA0      ?ND0?PWM
                                                     NDATA       ?C_USERSTACK
                                                     NDATA       ?C_USERSTACK1
                                                     NDATA       ?C_USERSTACK2
                                                     NDATA0      ?ND0?CAN

SDATA                                DATA  ---    4  IDATA       ?C_SYSSTACK




PUBLIC SYMBOLS OF MODULE:  ..\bin\ambientLight (LEDCTRL)


      VALUE       PUBLIC SYMBOL NAME               REP   TGR  CLASS   SECTION
      =======================================================================
      C016EEH     ?C_CASTF                         LABEL ---  NCODE   ?C_LIB_CODE
      C00098H     ?C_CLRMEMSECSTART                VAR   ---  ---     ---
      C00096H     ?C_ENDINIT                       VAR   ---  ---     ?C_INITSEC
      C0174AH     ?C_FCAST                         LABEL ---  NCODE   ?C_LIB_CODE
      C01576H     ?C_FPADD                         LABEL ---  NCODE   ?C_LIB_CODE
      C01790H     ?C_FPGETOPN                      LABEL ---  NCODE   ?C_LIB_CODE
      C017BEH     ?C_FPINFRSL                      LABEL ---  NCODE   ?C_LIB_CODE
      C0165AH     ?C_FPMUL                         LABEL ---  NCODE   ?C_LIB_CODE
      C017B6H     ?C_FPNANRSL                      LABEL ---  NCODE   ?C_LIB_CODE
      C017E0H     ?C_FPNOERR                       LABEL ---  NCODE   ?C_LIB_CODE
      C017CAH     ?C_FPOPRSL                       LABEL ---  NCODE   ?C_LIB_CODE
      C017D6H     ?C_FPRSLNR                       LABEL ---  NCODE   ?C_LIB_CODE
      C01572H     ?C_FPSUB                         LABEL ---  NCODE   ?C_LIB_CODE
      C017EEH     ?C_FPUNFRS                       LABEL ---  NCODE   ?C_LIB_CODE
      C015B4H     ?C_FPXSUB                        LABEL ---  NCODE   ?C_LIB_CODE
      C017EEH     ?C_FPZERRSL                      LABEL ---  NCODE   ?C_LIB_CODE
      C00004H     ?C_INITSECSTART                  VAR   ---  ---     ---
      C00000H     ?C_NCONSTBASE                    CONST ---  ---     ---
      0000C0H     ?C_NCONSTBASESEG                 CONST ---  ---     ---
      DF8000H     ?C_NDATABASE                     CONST ---  ---     ---
      0000DFH     ?C_NDATABASESEG                  CONST ---  ---     ---
      000000H     ?C_PAGEDPP0                      CONST ---  ---     ---
      000301H     ?C_PAGEDPP1                      CONST ---  ---     ---
      000380H     ?C_PAGEDPP2                      CONST ---  ---     ---
      C00104H     ?C_STARTUP                       LABEL ---  ICODE   ?C_STARTUP_CODE
      00F600H     ?C_SYSSTKBOT                     VAR   ---  IDATA   ?C_SYSSTACK
      00F800H     ?C_SYSSTKTOP                     VAR   ---  IDATA   ?C_SYSSTACK
      E00000H     ?C_USRSTKBOT                     VAR   ---  NDATA   ?C_USERSTACK
      000000H     ?L?VECSC                         CONST ---  ---     ---
L166 LINKER/LOCATER V5.25                                                             07/13/2019  10:17:21  PAGE 4


      C0135EH     CAN_ubReadFIFO                   LABEL ---  NCODE   ?PR?CAN
      C011EEH     CAN_ubWriteFIFO                  LABEL ---  NCODE   ?PR?CAN
      C01032H     CAN_vGetMsgObj                   LABEL ---  NCODE   ?PR?CAN
      C00E9AH     CAN_vInit                        LABEL ---  NCODE   ?PR?CAN
      C0118AH     CAN_vLoadData                    LABEL ---  NCODE   ?PR?CAN
      C01176H     CAN_vTransmit                    LABEL ---  NCODE   ?PR?CAN
      C014D8H     CAN_viSRN0                       LABEL ---  NCODE   ?PR?CAN
      C01B22H     CCU60_vInit                      LABEL ---  NCODE   ?PR?CCU60
      C01BAAH     CCU60_viNodeI0                   LABEL ---  NCODE   ?PR?CCU60
      C0181AH     DisableVcoBypass                 LABEL ---  NCODE   ?PR?SCS
      C0180CH     EnableVcoBypass                  LABEL ---  NCODE   ?PR?SCS
      C01D7CH     IO_vInit                         LABEL ---  NCODE   ?PR?IO
      C01C04H     MAIN_vChangeFreq                 LABEL ---  NCODE   ?PR?CLK
      C01C64H     MAIN_vLockProtecReg              LABEL ---  NCODE   ?PR?CLK
      C01C36H     MAIN_vUnlockProtecReg            LABEL ---  NCODE   ?PR?CLK
      000000H     RESET                            INTNO ---  ---     ---
      C018E8H     SCS_CountClocksWithTimer         LABEL ---  NCODE   ?PR?SCS
      C01832H     SCS_StartXtalOsc                 LABEL ---  NCODE   ?PR?SCS
      C01856H     SCS_SwitchSystemClock            LABEL ---  NCODE   ?PR?SCS
      C018E2H     SCS_SwitchToHighPrecBandgap      LABEL ---  NCODE   ?PR?SCS
      C017F4H     SetK2                            LABEL ---  NCODE   ?PR?SCS
      C01828H     WaitForTimer13Stop               LABEL ---  NCODE   ?PR?SCS
      C000B8H     canUpdate                        LABEL ---  NCODE   ?PR?CANSRV
      E0066CH     ccuCntArr                        VAR   ---  NDATA0  ?ND0?PWM
      E00640H     ccuCntArr2                       VAR   ---  NDATA0  ?ND0?CCU60
      E00654H     centerCnt                        VAR   ---  NDATA0  ?ND0?CCU60
      E00618H     colorArr                         VAR   ---  NDATA0  ?ND0?LEDCTRL
      C04000H     colorArrOrign                    VAR   ---  NCONST  ?NC?LEDCTRL
      C01CB4H     delay                            LABEL ---  NCODE   ?PR?CLK
      C01CB0H     delay300ns                       LABEL ---  NCODE   ?PR?CLK
      E00240H     ledDutyCycleArrary               VAR   ---  NDATA0  ?ND0?LED
      C0194EH     ledInit                          LABEL ---  NCODE   ?PR?LED
      C00DB6H     ledModeTransitionUpdate          LABEL ---  NCODE   ?PR?LEDCTRL
      C01980H     ledRgbEncodeUpdate               LABEL ---  NCODE   ?PR?LED
      E005A0H     ledStrip_Obj                     VAR   ---  NDATA0  ?ND0?LED
      E0063CH     leftCnt                          VAR   ---  NDATA0  ?ND0?CCU60
      C01CC2H     longDelay                        LABEL ---  NCODE   ?PR?CLK
      C01A40H     main                             LABEL ---  NCODE   ?PR?MAIN
      E00615H     manualMode                       VAR   ---  NDATA0  ?ND0?TASK
      E00656H     msgObj0x505                      VAR   ---  NDATA0  ?ND0?CAN
      E0063EH     rightCnt                         VAR   ---  NDATA0  ?ND0?CCU60
      C01CD8H     setPwmDutyCyc                    LABEL ---  NCODE   ?PR?PWM
      C01950H     setSingleLed                     LABEL ---  NCODE   ?PR?LED
      C000F8H     taskFast                         LABEL ---  NCODE   ?PR?TASK
      C000C4H     taskInit                         LABEL ---  NCODE   ?PR?TASK
      C000DEH     taskSlow                         LABEL ---  NCODE   ?PR?TASK



SYMBOL TABLE OF MODULE:  ..\bin\ambientLight (LEDCTRL)

      VALUE       TYPE      REP       LENGTH  TGR   SYMBOL NAME
      =========================================================
      C00DB6H     PUBLIC    LABEL     ---     ---   ledModeTransitionUpdate
      C00CE2H     SYMBOL    LABEL     ---     ---   ledMode18Ctrl
      C00C16H     SYMBOL    LABEL     ---     ---   ledMode17Ctrl
      C00C14H     SYMBOL    LABEL     ---     ---   ledMode16Ctrl
L166 LINKER/LOCATER V5.25                                                             07/13/2019  10:17:21  PAGE 5


      C00C12H     SYMBOL    LABEL     ---     ---   ledMode15Ctrl
      C00C10H     SYMBOL    LABEL     ---     ---   ledMode14Ctrl
      C00B8CH     SYMBOL    LABEL     ---     ---   ledMode13Ctrl
      C00B08H     SYMBOL    LABEL     ---     ---   ledMode12Ctrl
      C00B06H     SYMBOL    LABEL     ---     ---   ledMode11Ctrl
      C00B04H     SYMBOL    LABEL     ---     ---   ledMode10Ctrl
      C00A98H     SYMBOL    LABEL     ---     ---   ledMode9Ctrl
      C00958H     SYMBOL    LABEL     ---     ---   ledMode8Ctrl
      C0082CH     SYMBOL    LABEL     ---     ---   ledMode7Ctrl
      C007A8H     SYMBOL    LABEL     ---     ---   ledMode6Ctrl
      C007A6H     SYMBOL    LABEL     ---     ---   ledMode5Ctrl
      C005B8H     SYMBOL    LABEL     ---     ---   ledMode4Ctrl
      C00508H     SYMBOL    LABEL     ---     ---   ledMode3Ctrl
      C004D8H     SYMBOL    LABEL     ---     ---   ledMode2Ctrl
      C00396H     SYMBOL    LABEL     ---     ---   ledMode1Ctrl
      C04000H     PUBLIC    VAR       ---     ---   colorArrOrign
      E00618H     PUBLIC    VAR       ---     ---   colorArr

      C00396H     BLOCK     LVL=0     0142H   ---   ledMode1Ctrl
      000008H     SYMBOL    REG       ---     ---   oldInpMode
      C00398H     BLOCK     LVL=1     013CH   ---   
      E0063BH     SYMBOL    VAR       ---     ---   darknessLevel
      00004BH     SYMBOL    REG       ---     ---   j
      ---         BLOCKEND  LVL=1     ---     ---   
      C00396H     LINE      ---       ---     ---   #43
      C00398H     LINE      ---       ---     ---   #44
      C00398H     LINE      ---       ---     ---   #46
      C0039AH     LINE      ---       ---     ---   #47
      C003A0H     LINE      ---       ---     ---   #49
      C003A4H     LINE      ---       ---     ---   #50
      C003A4H     LINE      ---       ---     ---   #52
      C00402H     LINE      ---       ---     ---   #53
      C00460H     LINE      ---       ---     ---   #54
      C004BEH     LINE      ---       ---     ---   #55
      C004C8H     LINE      ---       ---     ---   #56
      C004D0H     LINE      ---       ---     ---   #58
      C004D4H     LINE      ---       ---     ---   #59
      C004D4H     LINE      ---       ---     ---   #62
      C004D4H     LINE      ---       ---     ---   #63
      ---         BLOCKEND  LVL=0     ---     ---   

      C004D8H     BLOCK     LVL=0     0030H   ---   ledMode2Ctrl
      C004DAH     BLOCK     LVL=1     002AH   ---   
      00004DH     SYMBOL    REG       ---     ---   i
      ---         BLOCKEND  LVL=1     ---     ---   
      C004D8H     LINE      ---       ---     ---   #66
      C004DAH     LINE      ---       ---     ---   #67
      C004DAH     LINE      ---       ---     ---   #68
      C004DCH     LINE      ---       ---     ---   #69
      C004DCH     LINE      ---       ---     ---   #71
      C004FAH     LINE      ---       ---     ---   #72
      C00504H     LINE      ---       ---     ---   #73
      ---         BLOCKEND  LVL=0     ---     ---   

      C00508H     BLOCK     LVL=0     00B0H   ---   ledMode3Ctrl
      C0050AH     BLOCK     LVL=1     00AAH   ---   
      E0063AH     SYMBOL    VAR       ---     ---   i
L166 LINKER/LOCATER V5.25                                                             07/13/2019  10:17:21  PAGE 6


      00004DH     SYMBOL    REG       ---     ---   j
      ---         BLOCKEND  LVL=1     ---     ---   
      C00508H     LINE      ---       ---     ---   #75
      C0050AH     LINE      ---       ---     ---   #76
      C0050AH     LINE      ---       ---     ---   #78
      C0050CH     LINE      ---       ---     ---   #80
      C00548H     LINE      ---       ---     ---   #83
      C00548H     LINE      ---       ---     ---   #84
      C00548H     LINE      ---       ---     ---   #85
      C00548H     LINE      ---       ---     ---   #86
      C00548H     LINE      ---       ---     ---   #87
      C00548H     LINE      ---       ---     ---   #88
      C0054AH     LINE      ---       ---     ---   #90
      C00568H     LINE      ---       ---     ---   #91
      C00572H     LINE      ---       ---     ---   #92
      C00576H     LINE      ---       ---     ---   #93
      C00578H     LINE      ---       ---     ---   #95
      C00578H     LINE      ---       ---     ---   #96
      C00578H     LINE      ---       ---     ---   #97
      C00578H     LINE      ---       ---     ---   #98
      C00578H     LINE      ---       ---     ---   #99
      C00578H     LINE      ---       ---     ---   #100
      C0057AH     LINE      ---       ---     ---   #102
      C00598H     LINE      ---       ---     ---   #103
      C005A2H     LINE      ---       ---     ---   #104
      C005A6H     LINE      ---       ---     ---   #105
      C005B0H     LINE      ---       ---     ---   #106
      C005B4H     LINE      ---       ---     ---   #107
      C005B4H     LINE      ---       ---     ---   #108
      C005B4H     LINE      ---       ---     ---   #109
      C005B4H     LINE      ---       ---     ---   #110
      C005B4H     LINE      ---       ---     ---   #111
      ---         BLOCKEND  LVL=0     ---     ---   

      C005B8H     BLOCK     LVL=0     01EEH   ---   ledMode4Ctrl
      000008H     SYMBOL    REG       ---     ---   oldInpMode
      C005BAH     BLOCK     LVL=1     01E8H   ---   
      E00639H     SYMBOL    VAR       ---     ---   i
      E00638H     SYMBOL    VAR       ---     ---   k
      00004DH     SYMBOL    REG       ---     ---   j
      ---         BLOCKEND  LVL=1     ---     ---   
      C005B8H     LINE      ---       ---     ---   #113
      C005BAH     LINE      ---       ---     ---   #114
      C005BAH     LINE      ---       ---     ---   #116
      C005BCH     LINE      ---       ---     ---   #118
      C005C0H     LINE      ---       ---     ---   #120
      C005C4H     LINE      ---       ---     ---   #121
      C005C8H     LINE      ---       ---     ---   #122
      C005C8H     LINE      ---       ---     ---   #125
      C005C8H     LINE      ---       ---     ---   #127
      C00606H     LINE      ---       ---     ---   #130
      C00606H     LINE      ---       ---     ---   #131
      C00606H     LINE      ---       ---     ---   #132
      C00606H     LINE      ---       ---     ---   #133
      C00606H     LINE      ---       ---     ---   #134
      C00606H     LINE      ---       ---     ---   #135
      C00608H     LINE      ---       ---     ---   #137
L166 LINKER/LOCATER V5.25                                                             07/13/2019  10:17:21  PAGE 7


      C00626H     LINE      ---       ---     ---   #138
      C00630H     LINE      ---       ---     ---   #139
      C00634H     LINE      ---       ---     ---   #140
      C00638H     LINE      ---       ---     ---   #142
      C00638H     LINE      ---       ---     ---   #143
      C00638H     LINE      ---       ---     ---   #144
      C00638H     LINE      ---       ---     ---   #145
      C00638H     LINE      ---       ---     ---   #146
      C00638H     LINE      ---       ---     ---   #147
      C0063AH     LINE      ---       ---     ---   #149
      C00658H     LINE      ---       ---     ---   #150
      C00662H     LINE      ---       ---     ---   #151
      C00680H     LINE      ---       ---     ---   #154
      C00680H     LINE      ---       ---     ---   #155
      C00692H     LINE      ---       ---     ---   #157
      C006B0H     LINE      ---       ---     ---   #158
      C006B0H     LINE      ---       ---     ---   #161
      C006B0H     LINE      ---       ---     ---   #162
      C006C4H     LINE      ---       ---     ---   #164
      C006E2H     LINE      ---       ---     ---   #165
      C006E2H     LINE      ---       ---     ---   #168
      C006E2H     LINE      ---       ---     ---   #169
      C006F6H     LINE      ---       ---     ---   #171
      C00714H     LINE      ---       ---     ---   #172
      C00714H     LINE      ---       ---     ---   #175
      C00714H     LINE      ---       ---     ---   #176
      C00728H     LINE      ---       ---     ---   #178
      C00746H     LINE      ---       ---     ---   #179
      C00746H     LINE      ---       ---     ---   #182
      C00746H     LINE      ---       ---     ---   #183
      C0075AH     LINE      ---       ---     ---   #185
      C00778H     LINE      ---       ---     ---   #186
      C00778H     LINE      ---       ---     ---   #189
      C00778H     LINE      ---       ---     ---   #190
      C00784H     LINE      ---       ---     ---   #191
      C00788H     LINE      ---       ---     ---   #192
      C00792H     LINE      ---       ---     ---   #194
      C00796H     LINE      ---       ---     ---   #195
      C0079EH     LINE      ---       ---     ---   #197
      C007A2H     LINE      ---       ---     ---   #198
      C007A2H     LINE      ---       ---     ---   #200
      C007A2H     LINE      ---       ---     ---   #201
      C007A2H     LINE      ---       ---     ---   #202
      C007A2H     LINE      ---       ---     ---   #203
      C007A2H     LINE      ---       ---     ---   #204
      ---         BLOCKEND  LVL=0     ---     ---   

      C007A6H     BLOCK     LVL=0     0002H   ---   ledMode5Ctrl
      C007A6H     LINE      ---       ---     ---   #206
      C007A6H     LINE      ---       ---     ---   #209
      ---         BLOCKEND  LVL=0     ---     ---   

      C007A8H     BLOCK     LVL=0     0084H   ---   ledMode6Ctrl
      C007AAH     BLOCK     LVL=1     007EH   ---   
      E00637H     SYMBOL    VAR       ---     ---   i
      00004DH     SYMBOL    REG       ---     ---   j
      ---         BLOCKEND  LVL=1     ---     ---   
L166 LINKER/LOCATER V5.25                                                             07/13/2019  10:17:21  PAGE 8


      C007A8H     LINE      ---       ---     ---   #211
      C007AAH     LINE      ---       ---     ---   #212
      C007AAH     LINE      ---       ---     ---   #214
      C007ACH     LINE      ---       ---     ---   #216
      C007BEH     LINE      ---       ---     ---   #219
      C007BEH     LINE      ---       ---     ---   #220
      C007BEH     LINE      ---       ---     ---   #221
      C007BEH     LINE      ---       ---     ---   #222
      C007C0H     LINE      ---       ---     ---   #224
      C007DEH     LINE      ---       ---     ---   #225
      C007E8H     LINE      ---       ---     ---   #226
      C007ECH     LINE      ---       ---     ---   #227
      C007EEH     LINE      ---       ---     ---   #229
      C007EEH     LINE      ---       ---     ---   #230
      C007EEH     LINE      ---       ---     ---   #231
      C007EEH     LINE      ---       ---     ---   #232
      C007F0H     LINE      ---       ---     ---   #234
      C0080EH     LINE      ---       ---     ---   #235
      C00818H     LINE      ---       ---     ---   #236
      C0081CH     LINE      ---       ---     ---   #237
      C00824H     LINE      ---       ---     ---   #238
      C00828H     LINE      ---       ---     ---   #239
      C00828H     LINE      ---       ---     ---   #240
      C00828H     LINE      ---       ---     ---   #241
      C00828H     LINE      ---       ---     ---   #242
      C00828H     LINE      ---       ---     ---   #243
      ---         BLOCKEND  LVL=0     ---     ---   

      C0082CH     BLOCK     LVL=0     012CH   ---   ledMode7Ctrl
      C00830H     BLOCK     LVL=1     0122H   ---   
      000000H     SYMBOL    AUTO      ---     ---   brightnessColor
      E00636H     SYMBOL    VAR       ---     ---   brightnessLevel
      E00635H     SYMBOL    VAR       ---     ---   i
      00004DH     SYMBOL    REG       ---     ---   j
      ---         BLOCKEND  LVL=1     ---     ---   
      C0082CH     LINE      ---       ---     ---   #245
      C00830H     LINE      ---       ---     ---   #246
      C00830H     LINE      ---       ---     ---   #250
      C00832H     LINE      ---       ---     ---   #252
      C00846H     LINE      ---       ---     ---   #255
      C00846H     LINE      ---       ---     ---   #256
      C00846H     LINE      ---       ---     ---   #257
      C00846H     LINE      ---       ---     ---   #258
      C00848H     LINE      ---       ---     ---   #260
      C00862H     LINE      ---       ---     ---   #261
      C0087CH     LINE      ---       ---     ---   #262
      C00894H     LINE      ---       ---     ---   #263
      C008B0H     LINE      ---       ---     ---   #264
      C008BAH     LINE      ---       ---     ---   #265
      C008BEH     LINE      ---       ---     ---   #266
      C008C0H     LINE      ---       ---     ---   #268
      C008C0H     LINE      ---       ---     ---   #269
      C008C0H     LINE      ---       ---     ---   #270
      C008C0H     LINE      ---       ---     ---   #271
      C008C2H     LINE      ---       ---     ---   #273
      C008DCH     LINE      ---       ---     ---   #274
      C008F6H     LINE      ---       ---     ---   #275
L166 LINKER/LOCATER V5.25                                                             07/13/2019  10:17:21  PAGE 9


      C0090EH     LINE      ---       ---     ---   #276
      C0092AH     LINE      ---       ---     ---   #277
      C00934H     LINE      ---       ---     ---   #278
      C00938H     LINE      ---       ---     ---   #279
      C00940H     LINE      ---       ---     ---   #281
      C00944H     LINE      ---       ---     ---   #282
      C0094EH     LINE      ---       ---     ---   #284
      C00952H     LINE      ---       ---     ---   #285
      C00952H     LINE      ---       ---     ---   #288
      C00952H     LINE      ---       ---     ---   #289
      C00952H     LINE      ---       ---     ---   #292
      C00952H     LINE      ---       ---     ---   #293
      C00952H     LINE      ---       ---     ---   #294
      C00952H     LINE      ---       ---     ---   #295
      C00952H     LINE      ---       ---     ---   #296
      C00952H     LINE      ---       ---     ---   #297
      ---         BLOCKEND  LVL=0     ---     ---   

      C00958H     BLOCK     LVL=0     0140H   ---   ledMode8Ctrl
      000008H     SYMBOL    REG       ---     ---   oldInpMode
      C0095CH     BLOCK     LVL=1     0136H   ---   
      E00634H     SYMBOL    VAR       ---     ---   i
      E00633H     SYMBOL    VAR       ---     ---   k
      00004DH     SYMBOL    REG       ---     ---   j
      000000H     SYMBOL    AUTO      ---     ---   brightnessColor
      ---         BLOCKEND  LVL=1     ---     ---   
      C00958H     LINE      ---       ---     ---   #299
      C0095CH     LINE      ---       ---     ---   #300
      C0095CH     LINE      ---       ---     ---   #302
      C0095EH     LINE      ---       ---     ---   #307
      C00964H     LINE      ---       ---     ---   #309
      C00968H     LINE      ---       ---     ---   #310
      C0096CH     LINE      ---       ---     ---   #311
      C0096CH     LINE      ---       ---     ---   #314
      C0096CH     LINE      ---       ---     ---   #315
      C00974H     LINE      ---       ---     ---   #317
      C00978H     LINE      ---       ---     ---   #318
      C00978H     LINE      ---       ---     ---   #321
      C00978H     LINE      ---       ---     ---   #323
      C009BEH     LINE      ---       ---     ---   #327
      C009BEH     LINE      ---       ---     ---   #328
      C009BEH     LINE      ---       ---     ---   #329
      C009BEH     LINE      ---       ---     ---   #330
      C009BEH     LINE      ---       ---     ---   #331
      C009BEH     LINE      ---       ---     ---   #332
      C009C0H     LINE      ---       ---     ---   #334
      C009DEH     LINE      ---       ---     ---   #335
      C009E8H     LINE      ---       ---     ---   #336
      C009ECH     LINE      ---       ---     ---   #337
      C009EEH     LINE      ---       ---     ---   #339
      C009EEH     LINE      ---       ---     ---   #340
      C009EEH     LINE      ---       ---     ---   #341
      C009EEH     LINE      ---       ---     ---   #342
      C009EEH     LINE      ---       ---     ---   #343
      C009EEH     LINE      ---       ---     ---   #344
      C009F0H     LINE      ---       ---     ---   #346
      C00A0EH     LINE      ---       ---     ---   #347
L166 LINKER/LOCATER V5.25                                                             07/13/2019  10:17:21  PAGE 10


      C00A18H     LINE      ---       ---     ---   #348
      C00A1CH     LINE      ---       ---     ---   #349
      C00A26H     LINE      ---       ---     ---   #351
      C00A2AH     LINE      ---       ---     ---   #352
      C00A2EH     LINE      ---       ---     ---   #353
      C00A2EH     LINE      ---       ---     ---   #354
      C00A30H     LINE      ---       ---     ---   #355
      C00A30H     LINE      ---       ---     ---   #356
      C00A44H     LINE      ---       ---     ---   #357
      C00A58H     LINE      ---       ---     ---   #358
      C00A6AH     LINE      ---       ---     ---   #359
      C00A6CH     LINE      ---       ---     ---   #361
      C00A88H     LINE      ---       ---     ---   #362
      C00A92H     LINE      ---       ---     ---   #363
      C00A92H     LINE      ---       ---     ---   #364
      C00A92H     LINE      ---       ---     ---   #365
      C00A92H     LINE      ---       ---     ---   #366
      ---         BLOCKEND  LVL=0     ---     ---   

      C00A98H     BLOCK     LVL=0     006CH   ---   ledMode9Ctrl
      C00A9CH     BLOCK     LVL=1     0062H   ---   
      00004DH     SYMBOL    REG       ---     ---   i
      000000H     SYMBOL    AUTO      ---     ---   brightnessColor
      ---         BLOCKEND  LVL=1     ---     ---   
      C00A98H     LINE      ---       ---     ---   #368
      C00A9CH     LINE      ---       ---     ---   #369
      C00A9CH     LINE      ---       ---     ---   #370
      C00A9EH     LINE      ---       ---     ---   #372
      C00AB2H     LINE      ---       ---     ---   #373
      C00AC6H     LINE      ---       ---     ---   #374
      C00AD8H     LINE      ---       ---     ---   #375
      C00AD8H     LINE      ---       ---     ---   #377
      C00AF4H     LINE      ---       ---     ---   #378
      C00AFEH     LINE      ---       ---     ---   #379
      ---         BLOCKEND  LVL=0     ---     ---   

      C00B04H     BLOCK     LVL=0     0002H   ---   ledMode10Ctrl
      C00B04H     LINE      ---       ---     ---   #381
      C00B04H     LINE      ---       ---     ---   #383
      ---         BLOCKEND  LVL=0     ---     ---   

      C00B06H     BLOCK     LVL=0     0002H   ---   ledMode11Ctrl
      C00B06H     LINE      ---       ---     ---   #385
      C00B06H     LINE      ---       ---     ---   #387
      ---         BLOCKEND  LVL=0     ---     ---   

      C00B08H     BLOCK     LVL=0     0084H   ---   ledMode12Ctrl
      C00B0AH     BLOCK     LVL=1     007EH   ---   
      E00632H     SYMBOL    VAR       ---     ---   i
      00004DH     SYMBOL    REG       ---     ---   j
      ---         BLOCKEND  LVL=1     ---     ---   
      C00B08H     LINE      ---       ---     ---   #389
      C00B0AH     LINE      ---       ---     ---   #390
      C00B0AH     LINE      ---       ---     ---   #392
      C00B0CH     LINE      ---       ---     ---   #394
      C00B1EH     LINE      ---       ---     ---   #397
      C00B1EH     LINE      ---       ---     ---   #398
L166 LINKER/LOCATER V5.25                                                             07/13/2019  10:17:21  PAGE 11


      C00B1EH     LINE      ---       ---     ---   #399
      C00B1EH     LINE      ---       ---     ---   #400
      C00B20H     LINE      ---       ---     ---   #402
      C00B3EH     LINE      ---       ---     ---   #403
      C00B48H     LINE      ---       ---     ---   #404
      C00B4CH     LINE      ---       ---     ---   #405
      C00B4EH     LINE      ---       ---     ---   #407
      C00B4EH     LINE      ---       ---     ---   #408
      C00B4EH     LINE      ---       ---     ---   #409
      C00B4EH     LINE      ---       ---     ---   #410
      C00B50H     LINE      ---       ---     ---   #412
      C00B6EH     LINE      ---       ---     ---   #413
      C00B78H     LINE      ---       ---     ---   #414
      C00B7CH     LINE      ---       ---     ---   #415
      C00B84H     LINE      ---       ---     ---   #416
      C00B88H     LINE      ---       ---     ---   #417
      C00B88H     LINE      ---       ---     ---   #418
      C00B88H     LINE      ---       ---     ---   #419
      C00B88H     LINE      ---       ---     ---   #420
      C00B88H     LINE      ---       ---     ---   #421
      ---         BLOCKEND  LVL=0     ---     ---   

      C00B8CH     BLOCK     LVL=0     0084H   ---   ledMode13Ctrl
      C00B8EH     BLOCK     LVL=1     007EH   ---   
      E00631H     SYMBOL    VAR       ---     ---   i
      00004DH     SYMBOL    REG       ---     ---   j
      ---         BLOCKEND  LVL=1     ---     ---   
      C00B8CH     LINE      ---       ---     ---   #423
      C00B8EH     LINE      ---       ---     ---   #424
      C00B8EH     LINE      ---       ---     ---   #426
      C00B90H     LINE      ---       ---     ---   #428
      C00BA2H     LINE      ---       ---     ---   #431
      C00BA2H     LINE      ---       ---     ---   #432
      C00BA2H     LINE      ---       ---     ---   #433
      C00BA2H     LINE      ---       ---     ---   #434
      C00BA4H     LINE      ---       ---     ---   #436
      C00BC2H     LINE      ---       ---     ---   #437
      C00BCCH     LINE      ---       ---     ---   #438
      C00BD0H     LINE      ---       ---     ---   #439
      C00BD2H     LINE      ---       ---     ---   #441
      C00BD2H     LINE      ---       ---     ---   #442
      C00BD2H     LINE      ---       ---     ---   #443
      C00BD2H     LINE      ---       ---     ---   #444
      C00BD4H     LINE      ---       ---     ---   #446
      C00BF2H     LINE      ---       ---     ---   #447
      C00BFCH     LINE      ---       ---     ---   #448
      C00C00H     LINE      ---       ---     ---   #449
      C00C08H     LINE      ---       ---     ---   #450
      C00C0CH     LINE      ---       ---     ---   #451
      C00C0CH     LINE      ---       ---     ---   #452
      C00C0CH     LINE      ---       ---     ---   #453
      C00C0CH     LINE      ---       ---     ---   #454
      C00C0CH     LINE      ---       ---     ---   #455
      ---         BLOCKEND  LVL=0     ---     ---   

      C00C10H     BLOCK     LVL=0     0002H   ---   ledMode14Ctrl
      C00C10H     LINE      ---       ---     ---   #457
L166 LINKER/LOCATER V5.25                                                             07/13/2019  10:17:21  PAGE 12


      C00C10H     LINE      ---       ---     ---   #460
      ---         BLOCKEND  LVL=0     ---     ---   

      C00C12H     BLOCK     LVL=0     0002H   ---   ledMode15Ctrl
      C00C12H     LINE      ---       ---     ---   #462
      C00C12H     LINE      ---       ---     ---   #464
      ---         BLOCKEND  LVL=0     ---     ---   

      C00C14H     BLOCK     LVL=0     0002H   ---   ledMode16Ctrl
      C00C14H     LINE      ---       ---     ---   #466
      C00C14H     LINE      ---       ---     ---   #468
      ---         BLOCKEND  LVL=0     ---     ---   

      C00C16H     BLOCK     LVL=0     00CCH   ---   ledMode17Ctrl
      000008H     SYMBOL    REG       ---     ---   oldInpMode
      C00C18H     BLOCK     LVL=1     00C6H   ---   
      E00630H     SYMBOL    VAR       ---     ---   i
      00004DH     SYMBOL    REG       ---     ---   j
      E0062FH     SYMBOL    VAR       ---     ---   ledIdxOn
      ---         BLOCKEND  LVL=1     ---     ---   
      C00C16H     LINE      ---       ---     ---   #470
      C00C18H     LINE      ---       ---     ---   #471
      C00C18H     LINE      ---       ---     ---   #473
      C00C1AH     LINE      ---       ---     ---   #476
      C00C20H     LINE      ---       ---     ---   #478
      C00C24H     LINE      ---       ---     ---   #479
      C00C28H     LINE      ---       ---     ---   #480
      C00C28H     LINE      ---       ---     ---   #483
      C00C28H     LINE      ---       ---     ---   #485
      C00C3AH     LINE      ---       ---     ---   #488
      C00C3AH     LINE      ---       ---     ---   #489
      C00C3AH     LINE      ---       ---     ---   #490
      C00C3AH     LINE      ---       ---     ---   #491
      C00C3CH     LINE      ---       ---     ---   #493
      C00C44H     LINE      ---       ---     ---   #495
      C00C62H     LINE      ---       ---     ---   #496
      C00C64H     LINE      ---       ---     ---   #499
      C00C82H     LINE      ---       ---     ---   #500
      C00C82H     LINE      ---       ---     ---   #501
      C00C8CH     LINE      ---       ---     ---   #502
      C00C90H     LINE      ---       ---     ---   #503
      C00C92H     LINE      ---       ---     ---   #506
      C00C92H     LINE      ---       ---     ---   #507
      C00C92H     LINE      ---       ---     ---   #508
      C00C92H     LINE      ---       ---     ---   #509
      C00C94H     LINE      ---       ---     ---   #511
      C00CB2H     LINE      ---       ---     ---   #512
      C00CBCH     LINE      ---       ---     ---   #513
      C00CC0H     LINE      ---       ---     ---   #514
      C00CC8H     LINE      ---       ---     ---   #516
      C00CCCH     LINE      ---       ---     ---   #517
      C00CD6H     LINE      ---       ---     ---   #519
      C00CDAH     LINE      ---       ---     ---   #520
      C00CDAH     LINE      ---       ---     ---   #523
      C00CDAH     LINE      ---       ---     ---   #524
      C00CDEH     LINE      ---       ---     ---   #525
      C00CDEH     LINE      ---       ---     ---   #528
L166 LINKER/LOCATER V5.25                                                             07/13/2019  10:17:21  PAGE 13


      C00CDEH     LINE      ---       ---     ---   #529
      C00CDEH     LINE      ---       ---     ---   #531
      C00CDEH     LINE      ---       ---     ---   #532
      C00CDEH     LINE      ---       ---     ---   #533
      C00CDEH     LINE      ---       ---     ---   #534
      ---         BLOCKEND  LVL=0     ---     ---   

      C00CE2H     BLOCK     LVL=0     00D4H   ---   ledMode18Ctrl
      000008H     SYMBOL    REG       ---     ---   oldInpMode
      C00CE4H     BLOCK     LVL=1     00CEH   ---   
      E0062EH     SYMBOL    VAR       ---     ---   i
      00004DH     SYMBOL    REG       ---     ---   j
      E0062DH     SYMBOL    VAR       ---     ---   ledIdxOn
      ---         BLOCKEND  LVL=1     ---     ---   
      C00CE2H     LINE      ---       ---     ---   #536
      C00CE4H     LINE      ---       ---     ---   #537
      C00CE4H     LINE      ---       ---     ---   #539
      C00CE6H     LINE      ---       ---     ---   #542
      C00CECH     LINE      ---       ---     ---   #544
      C00CF0H     LINE      ---       ---     ---   #545
      C00CF4H     LINE      ---       ---     ---   #546
      C00CF4H     LINE      ---       ---     ---   #549
      C00CF4H     LINE      ---       ---     ---   #551
      C00D06H     LINE      ---       ---     ---   #554
      C00D06H     LINE      ---       ---     ---   #555
      C00D06H     LINE      ---       ---     ---   #556
      C00D06H     LINE      ---       ---     ---   #557
      C00D08H     LINE      ---       ---     ---   #559
      C00D18H     LINE      ---       ---     ---   #561
      C00D36H     LINE      ---       ---     ---   #562
      C00D38H     LINE      ---       ---     ---   #565
      C00D56H     LINE      ---       ---     ---   #566
      C00D56H     LINE      ---       ---     ---   #567
      C00D60H     LINE      ---       ---     ---   #568
      C00D64H     LINE      ---       ---     ---   #569
      C00D66H     LINE      ---       ---     ---   #572
      C00D66H     LINE      ---       ---     ---   #573
      C00D66H     LINE      ---       ---     ---   #574
      C00D66H     LINE      ---       ---     ---   #575
      C00D68H     LINE      ---       ---     ---   #577
      C00D86H     LINE      ---       ---     ---   #578
      C00D90H     LINE      ---       ---     ---   #579
      C00D94H     LINE      ---       ---     ---   #580
      C00D9CH     LINE      ---       ---     ---   #582
      C00DA0H     LINE      ---       ---     ---   #583
      C00DAAH     LINE      ---       ---     ---   #585
      C00DAEH     LINE      ---       ---     ---   #586
      C00DAEH     LINE      ---       ---     ---   #589
      C00DAEH     LINE      ---       ---     ---   #590
      C00DB2H     LINE      ---       ---     ---   #591
      C00DB2H     LINE      ---       ---     ---   #594
      C00DB2H     LINE      ---       ---     ---   #595
      C00DB2H     LINE      ---       ---     ---   #597
      C00DB2H     LINE      ---       ---     ---   #598
      C00DB2H     LINE      ---       ---     ---   #599
      C00DB2H     LINE      ---       ---     ---   #600
      ---         BLOCKEND  LVL=0     ---     ---   
L166 LINKER/LOCATER V5.25                                                             07/13/2019  10:17:21  PAGE 14



      C00DB6H     BLOCK     LVL=0     00E4H   ---   ledModeTransitionUpdate
      00000DH     SYMBOL    REG       ---     ---   userInpMode
      C00DBAH     BLOCK     LVL=1     00DCH   ---   
      E00616H     SYMBOL    VAR       ---     ---   oldUserInpMode
      ---         BLOCKEND  LVL=1     ---     ---   
      C00DB6H     LINE      ---       ---     ---   #602
      C00DBAH     LINE      ---       ---     ---   #603
      C00DBAH     LINE      ---       ---     ---   #605
      C00E14H     LINE      ---       ---     ---   #607
      C00E14H     LINE      ---       ---     ---   #608
      C00E1CH     LINE      ---       ---     ---   #609
      C00E1EH     LINE      ---       ---     ---   #610
      C00E1EH     LINE      ---       ---     ---   #611
      C00E22H     LINE      ---       ---     ---   #612
      C00E24H     LINE      ---       ---     ---   #613
      C00E24H     LINE      ---       ---     ---   #614
      C00E28H     LINE      ---       ---     ---   #615
      C00E2AH     LINE      ---       ---     ---   #616
      C00E2AH     LINE      ---       ---     ---   #617
      C00E32H     LINE      ---       ---     ---   #618
      C00E34H     LINE      ---       ---     ---   #619
      C00E34H     LINE      ---       ---     ---   #620
      C00E38H     LINE      ---       ---     ---   #621
      C00E3AH     LINE      ---       ---     ---   #622
      C00E3AH     LINE      ---       ---     ---   #623
      C00E3EH     LINE      ---       ---     ---   #624
      C00E40H     LINE      ---       ---     ---   #625
      C00E40H     LINE      ---       ---     ---   #626
      C00E44H     LINE      ---       ---     ---   #627
      C00E46H     LINE      ---       ---     ---   #628
      C00E46H     LINE      ---       ---     ---   #629
      C00E4EH     LINE      ---       ---     ---   #630
      C00E50H     LINE      ---       ---     ---   #631
      C00E50H     LINE      ---       ---     ---   #632
      C00E54H     LINE      ---       ---     ---   #633
      C00E56H     LINE      ---       ---     ---   #634
      C00E56H     LINE      ---       ---     ---   #635
      C00E5AH     LINE      ---       ---     ---   #636
      C00E5CH     LINE      ---       ---     ---   #637
      C00E5CH     LINE      ---       ---     ---   #638
      C00E60H     LINE      ---       ---     ---   #639
      C00E62H     LINE      ---       ---     ---   #640
      C00E62H     LINE      ---       ---     ---   #641
      C00E66H     LINE      ---       ---     ---   #642
      C00E68H     LINE      ---       ---     ---   #643
      C00E68H     LINE      ---       ---     ---   #644
      C00E6CH     LINE      ---       ---     ---   #645
      C00E6EH     LINE      ---       ---     ---   #646
      C00E6EH     LINE      ---       ---     ---   #647
      C00E72H     LINE      ---       ---     ---   #648
      C00E74H     LINE      ---       ---     ---   #649
      C00E74H     LINE      ---       ---     ---   #650
      C00E78H     LINE      ---       ---     ---   #651
      C00E7AH     LINE      ---       ---     ---   #652
      C00E7AH     LINE      ---       ---     ---   #653
      C00E7EH     LINE      ---       ---     ---   #654
L166 LINKER/LOCATER V5.25                                                             07/13/2019  10:17:21  PAGE 15


      C00E80H     LINE      ---       ---     ---   #655
      C00E80H     LINE      ---       ---     ---   #656
      C00E88H     LINE      ---       ---     ---   #657
      C00E8AH     LINE      ---       ---     ---   #658
      C00E8AH     LINE      ---       ---     ---   #659
      C00E92H     LINE      ---       ---     ---   #660
      C00E92H     LINE      ---       ---     ---   #661
      C00E92H     LINE      ---       ---     ---   #663
      C00E92H     LINE      ---       ---     ---   #664
      C00E92H     LINE      ---       ---     ---   #665
      C00E96H     LINE      ---       ---     ---   #666
      ---         BLOCKEND  LVL=0     ---     ---   
      C01A40H     GLOBAL    LABEL     ---     ---   main

      C01A40H     BLOCK     LVL=0     00E2H   ---   main
      C01A40H     BLOCK     LVL=1     00E2H   ---   
      00000DH     SYMBOL    REG       ---     ---   i
      00004EH     SYMBOL    REG       ---     ---   ledZoneSwitch
      ---         BLOCKEND  LVL=1     ---     ---   
      C01A40H     LINE      ---       ---     ---   #5
      C01A40H     LINE      ---       ---     ---   #6
      C01A40H     LINE      ---       ---     ---   #7
      C01A42H     LINE      ---       ---     ---   #8
      C01A46H     LINE      ---       ---     ---   #9
      C01A4AH     LINE      ---       ---     ---   #13
      C01A4AH     LINE      ---       ---     ---   #15
      C01A5CH     LINE      ---       ---     ---   #17
      C01A5CH     LINE      ---       ---     ---   #18
      C01A60H     LINE      ---       ---     ---   #19
      C01A62H     LINE      ---       ---     ---   #20
      C01A6AH     LINE      ---       ---     ---   #21
      C01A6CH     LINE      ---       ---     ---   #22
      C01A6CH     LINE      ---       ---     ---   #23
      C01A72H     LINE      ---       ---     ---   #25
      C01A74H     LINE      ---       ---     ---   #26
      C01A78H     LINE      ---       ---     ---   #27
      C01A7CH     LINE      ---       ---     ---   #28
      C01A80H     LINE      ---       ---     ---   #29
      C01A82H     LINE      ---       ---     ---   #30
      C01A84H     LINE      ---       ---     ---   #33
      C01A86H     LINE      ---       ---     ---   #34
      C01A8AH     LINE      ---       ---     ---   #35
      C01A8CH     LINE      ---       ---     ---   #36
      C01A90H     LINE      ---       ---     ---   #37
      C01A94H     LINE      ---       ---     ---   #38
      C01A94H     LINE      ---       ---     ---   #39
      C01A94H     LINE      ---       ---     ---   #40
      C01A9AH     LINE      ---       ---     ---   #42
      C01AA2H     LINE      ---       ---     ---   #43
      C01AA4H     LINE      ---       ---     ---   #44
      C01AA6H     LINE      ---       ---     ---   #45
      C01AA6H     LINE      ---       ---     ---   #46
      C01AA8H     LINE      ---       ---     ---   #47
      C01AA8H     LINE      ---       ---     ---   #48
      C01AAEH     LINE      ---       ---     ---   #50
      C01AB0H     LINE      ---       ---     ---   #51
      C01AB4H     LINE      ---       ---     ---   #52
L166 LINKER/LOCATER V5.25                                                             07/13/2019  10:17:21  PAGE 16


      C01AB8H     LINE      ---       ---     ---   #53
      C01ABCH     LINE      ---       ---     ---   #54
      C01ABEH     LINE      ---       ---     ---   #55
      C01AC0H     LINE      ---       ---     ---   #58
      C01AC2H     LINE      ---       ---     ---   #59
      C01AC6H     LINE      ---       ---     ---   #60
      C01AC8H     LINE      ---       ---     ---   #61
      C01ACCH     LINE      ---       ---     ---   #62
      C01AD0H     LINE      ---       ---     ---   #63
      C01AD0H     LINE      ---       ---     ---   #64
      C01AD0H     LINE      ---       ---     ---   #65
      C01AD6H     LINE      ---       ---     ---   #67
      C01ADEH     LINE      ---       ---     ---   #68
      C01AE0H     LINE      ---       ---     ---   #69
      C01AE2H     LINE      ---       ---     ---   #70
      C01AE2H     LINE      ---       ---     ---   #71
      C01AE4H     LINE      ---       ---     ---   #72
      C01AE4H     LINE      ---       ---     ---   #73
      C01AEAH     LINE      ---       ---     ---   #75
      C01AECH     LINE      ---       ---     ---   #76
      C01AF0H     LINE      ---       ---     ---   #77
      C01AF4H     LINE      ---       ---     ---   #78
      C01AF8H     LINE      ---       ---     ---   #79
      C01AFAH     LINE      ---       ---     ---   #80
      C01AFCH     LINE      ---       ---     ---   #83
      C01AFEH     LINE      ---       ---     ---   #84
      C01B02H     LINE      ---       ---     ---   #85
      C01B04H     LINE      ---       ---     ---   #86
      C01B08H     LINE      ---       ---     ---   #87
      C01B0CH     LINE      ---       ---     ---   #88
      C01B0CH     LINE      ---       ---     ---   #89
      C01B0CH     LINE      ---       ---     ---   #90
      C01B12H     LINE      ---       ---     ---   #92
      C01B1AH     LINE      ---       ---     ---   #93
      C01B1CH     LINE      ---       ---     ---   #94
      C01B20H     LINE      ---       ---     ---   #95
      C01B20H     LINE      ---       ---     ---   #96
      C01B22H     LINE      ---       ---     ---   #97
      C01B22H     LINE      ---       ---     ---   #101
      ---         BLOCKEND  LVL=0     ---     ---   
      C000DEH     PUBLIC    LABEL     ---     ---   taskSlow
      C000C4H     PUBLIC    LABEL     ---     ---   taskInit
      C000F8H     PUBLIC    LABEL     ---     ---   taskFast
      C000C3H     SYMBOL    LABEL     ---     ---   testFun
      E00615H     PUBLIC    VAR       ---     ---   manualMode

      C000C4H     BLOCK     LVL=0     001AH   ---   taskInit
      C000C4H     LINE      ---       ---     ---   #32
      C000C4H     LINE      ---       ---     ---   #36
      C000C6H     LINE      ---       ---     ---   #50
      C000CAH     LINE      ---       ---     ---   #52
      C000CEH     LINE      ---       ---     ---   #63
      C000D2H     LINE      ---       ---     ---   #65
      C000D6H     LINE      ---       ---     ---   #72
      C000DAH     LINE      ---       ---     ---   #80
      C000DCH     LINE      ---       ---     ---   #81
      ---         BLOCKEND  LVL=0     ---     ---   
L166 LINKER/LOCATER V5.25                                                             07/13/2019  10:17:21  PAGE 17



      C000DEH     BLOCK     LVL=0     001AH   ---   taskSlow
      C000E0H     BLOCK     LVL=1     0014H   ---   
      000000H     SYMBOL    AUTO      ---     ---   canSigObj
      ---         BLOCKEND  LVL=1     ---     ---   
      C000DEH     LINE      ---       ---     ---   #94
      C000E0H     LINE      ---       ---     ---   #95
      C000E0H     LINE      ---       ---     ---   #103
      C000E6H     LINE      ---       ---     ---   #106
      C000EEH     LINE      ---       ---     ---   #109
      C000F4H     LINE      ---       ---     ---   #112
      ---         BLOCKEND  LVL=0     ---     ---   

      C000F8H     BLOCK     LVL=0     0002H   ---   taskFast
      C000F8H     LINE      ---       ---     ---   #118
      C000F8H     LINE      ---       ---     ---   #123
      ---         BLOCKEND  LVL=0     ---     ---   
      C0194EH     PUBLIC    LABEL     ---     ---   ledInit
      C01950H     PUBLIC    LABEL     ---     ---   setSingleLed
      C01980H     PUBLIC    LABEL     ---     ---   ledRgbEncodeUpdate
      E00240H     PUBLIC    VAR       ---     ---   ledDutyCycleArrary
      E005A0H     PUBLIC    VAR       ---     ---   ledStrip_Obj

      C0194EH     BLOCK     LVL=0     0002H   ---   ledInit
      C0194EH     LINE      ---       ---     ---   #68
      C0194EH     LINE      ---       ---     ---   #72
      ---         BLOCKEND  LVL=0     ---     ---   

      C01950H     BLOCK     LVL=0     0030H   ---   setSingleLed
      000008H     SYMBOL    REG       ---     ---   ledStripIdx
      000049H     SYMBOL    REG       ---     ---   ledIdx
      000000H     SYMBOL    AUTO      ---     ---   rgbVal
      C01950H     LINE      ---       ---     ---   #77
      C01950H     LINE      ---       ---     ---   #79
      C0196EH     LINE      ---       ---     ---   #80
      C01976H     LINE      ---       ---     ---   #81
      C0197EH     LINE      ---       ---     ---   #82
      ---         BLOCKEND  LVL=0     ---     ---   

      C01980H     BLOCK     LVL=0     00C0H   ---   ledRgbEncodeUpdate
      000008H     SYMBOL    REG       ---     ---   ledStripIdx
      C01980H     BLOCK     LVL=1     00BEH   ---   
      000084H     SYMBOL    REG       ---     ---   curBitEncode
      000086H     SYMBOL    REG       ---     ---   encodeVal
      000082H     SYMBOL    REG       ---     ---   i
      00008EH     SYMBOL    REG       ---     ---   j
      000009H     SYMBOL    REG       ---     ---   k
      ---         BLOCKEND  LVL=1     ---     ---   
      C01980H     LINE      ---       ---     ---   #87
      C01980H     LINE      ---       ---     ---   #88
      C01980H     LINE      ---       ---     ---   #89
      C01982H     LINE      ---       ---     ---   #90
      C01984H     LINE      ---       ---     ---   #91
      C01988H     LINE      ---       ---     ---   #92
      C0198AH     LINE      ---       ---     ---   #93
      C0198AH     LINE      ---       ---     ---   #96
      C0198CH     LINE      ---       ---     ---   #99
L166 LINKER/LOCATER V5.25                                                             07/13/2019  10:17:21  PAGE 18


      C01992H     LINE      ---       ---     ---   #101
      C019B6H     LINE      ---       ---     ---   #102
      C019B8H     LINE      ---       ---     ---   #103
      C019C4H     LINE      ---       ---     ---   #105
      C019E8H     LINE      ---       ---     ---   #106
      C019EAH     LINE      ---       ---     ---   #107
      C019F6H     LINE      ---       ---     ---   #109
      C01A1CH     LINE      ---       ---     ---   #110
      C01A1CH     LINE      ---       ---     ---   #114
      C01A1CH     LINE      ---       ---     ---   #136
      C01A1EH     LINE      ---       ---     ---   #139
      C01A2CH     LINE      ---       ---     ---   #140
      C01A2EH     LINE      ---       ---     ---   #141
      C01A36H     LINE      ---       ---     ---   #142
      C01A3EH     LINE      ---       ---     ---   #143
      ---         BLOCKEND  LVL=0     ---     ---   
      C000B8H     PUBLIC    LABEL     ---     ---   canUpdate
      C000B2H     SYMBOL    LABEL     ---     ---   canMsg0x505Upack

      C000B2H     BLOCK     LVL=0     0006H   ---   canMsg0x505Upack
      000008H     SYMBOL    REG       ---     ---   canSignalObj
      C000B2H     LINE      ---       ---     ---   #3
      C000B2H     LINE      ---       ---     ---   #5
      C000B6H     LINE      ---       ---     ---   #6
      ---         BLOCKEND  LVL=0     ---     ---   

      C000B8H     BLOCK     LVL=0     0006H   ---   canUpdate
      000004H     SYMBOL    REG       ---     ---   canSignalObj
      C000B8H     LINE      ---       ---     ---   #8
      C000BAH     LINE      ---       ---     ---   #10
      C000BCH     LINE      ---       ---     ---   #11
      ---         BLOCKEND  LVL=0     ---     ---   
      C01B22H     PUBLIC    LABEL     ---     ---   CCU60_vInit
      C01BAAH     PUBLIC    LABEL     ---     ---   CCU60_viNodeI0
      E0063CH     PUBLIC    VAR       ---     ---   leftCnt
      E0063EH     PUBLIC    VAR       ---     ---   rightCnt
      E00640H     PUBLIC    VAR       ---     ---   ccuCntArr2
      E00654H     PUBLIC    VAR       ---     ---   centerCnt

      C01B22H     BLOCK     LVL=0     0088H   ---   CCU60_vInit
      C01B22H     LINE      ---       ---     ---   #122
      C01B22H     LINE      ---       ---     ---   #137
      C01B28H     LINE      ---       ---     ---   #139
      C01B2AH     LINE      ---       ---     ---   #140
      C01B2CH     LINE      ---       ---     ---   #141
      C01B2EH     LINE      ---       ---     ---   #142
      C01B30H     LINE      ---       ---     ---   #158
      C01B38H     LINE      ---       ---     ---   #178
      C01B3CH     LINE      ---       ---     ---   #180
      C01B44H     LINE      ---       ---     ---   #199
      C01B4AH     LINE      ---       ---     ---   #218
      C01B4EH     LINE      ---       ---     ---   #237
      C01B52H     LINE      ---       ---     ---   #250
      C01B56H     LINE      ---       ---     ---   #254
      C01B5CH     LINE      ---       ---     ---   #257
      C01B64H     LINE      ---       ---     ---   #260
      C01B6CH     LINE      ---       ---     ---   #262
L166 LINKER/LOCATER V5.25                                                             07/13/2019  10:17:21  PAGE 19


      C01B74H     LINE      ---       ---     ---   #287
      C01B7AH     LINE      ---       ---     ---   #290
      C01B82H     LINE      ---       ---     ---   #301
      C01B8AH     LINE      ---       ---     ---   #302
      C01B8EH     LINE      ---       ---     ---   #303
      C01B92H     LINE      ---       ---     ---   #305
      C01B9AH     LINE      ---       ---     ---   #315
      C01BA0H     LINE      ---       ---     ---   #324
      C01BA8H     LINE      ---       ---     ---   #331
      ---         BLOCKEND  LVL=0     ---     ---   

      C01BAAH     BLOCK     LVL=0     005AH   ---   CCU60_viNodeI0
      C01BAAH     LINE      ---       ---     ---   #365
      C01BB2H     LINE      ---       ---     ---   #381
      C01BBAH     LINE      ---       ---     ---   #382
      C01BC2H     LINE      ---       ---     ---   #392
      C01BCCH     LINE      ---       ---     ---   #394
      C01BD6H     LINE      ---       ---     ---   #395
      C01BE0H     LINE      ---       ---     ---   #396
      C01BE4H     LINE      ---       ---     ---   #397
      C01BE6H     LINE      ---       ---     ---   #400
      C01BEAH     LINE      ---       ---     ---   #401
      C01BEAH     LINE      ---       ---     ---   #405
      C01BF4H     LINE      ---       ---     ---   #406
      C01BF4H     LINE      ---       ---     ---   #407
      C01BFCH     LINE      ---       ---     ---   #443
      ---         BLOCKEND  LVL=0     ---     ---   
      C01C04H     PUBLIC    LABEL     ---     ---   MAIN_vChangeFreq
      C01CC2H     PUBLIC    LABEL     ---     ---   longDelay
      C01C64H     PUBLIC    LABEL     ---     ---   MAIN_vLockProtecReg
      C01CB4H     PUBLIC    LABEL     ---     ---   delay
      C01CB0H     PUBLIC    LABEL     ---     ---   delay300ns
      C01C36H     PUBLIC    LABEL     ---     ---   MAIN_vUnlockProtecReg

      C01C04H     BLOCK     LVL=0     0032H   ---   MAIN_vChangeFreq
      C01C04H     LINE      ---       ---     ---   #25
      C01C04H     LINE      ---       ---     ---   #27
      C01C08H     LINE      ---       ---     ---   #33
      C01C12H     LINE      ---       ---     ---   #39
      C01C18H     LINE      ---       ---     ---   #40
      C01C1EH     LINE      ---       ---     ---   #42
      C01C20H     LINE      ---       ---     ---   #46
      C01C2EH     LINE      ---       ---     ---   #50
      C01C30H     LINE      ---       ---     ---   #52
      C01C32H     LINE      ---       ---     ---   #59
      C01C34H     LINE      ---       ---     ---   #60
      C01C34H     LINE      ---       ---     ---   #63
      C01C34H     LINE      ---       ---     ---   #65
      ---         BLOCKEND  LVL=0     ---     ---   

      C01C36H     BLOCK     LVL=0     002EH   ---   MAIN_vUnlockProtecReg
      C01C36H     BLOCK     LVL=1     002CH   ---   
      000005H     SYMBOL    REG       ---     ---   uwPASSWORD
      ---         BLOCKEND  LVL=1     ---     ---   
      C01C36H     LINE      ---       ---     ---   #90
      C01C36H     LINE      ---       ---     ---   #91
      C01C36H     LINE      ---       ---     ---   #94
L166 LINKER/LOCATER V5.25                                                             07/13/2019  10:17:21  PAGE 20


      C01C3CH     LINE      ---       ---     ---   #95
      C01C40H     LINE      ---       ---     ---   #97
      C01C48H     LINE      ---       ---     ---   #98
      C01C52H     LINE      ---       ---     ---   #100
      C01C5CH     LINE      ---       ---     ---   #101
      C01C62H     LINE      ---       ---     ---   #103
      ---         BLOCKEND  LVL=0     ---     ---   

      C01C64H     BLOCK     LVL=0     004CH   ---   MAIN_vLockProtecReg
      C01C64H     BLOCK     LVL=1     004AH   ---   
      000005H     SYMBOL    REG       ---     ---   uwPASSWORD
      ---         BLOCKEND  LVL=1     ---     ---   
      C01C64H     LINE      ---       ---     ---   #128
      C01C64H     LINE      ---       ---     ---   #129
      C01C64H     LINE      ---       ---     ---   #132
      C01C6AH     LINE      ---       ---     ---   #133
      C01C6EH     LINE      ---       ---     ---   #135
      C01C76H     LINE      ---       ---     ---   #136
      C01C80H     LINE      ---       ---     ---   #138
      C01C8AH     LINE      ---       ---     ---   #139
      C01C90H     LINE      ---       ---     ---   #141
      C01C9AH     LINE      ---       ---     ---   #142
      C01CA4H     LINE      ---       ---     ---   #143
      C01CAEH     LINE      ---       ---     ---   #145
      ---         BLOCKEND  LVL=0     ---     ---   

      C01CB0H     BLOCK     LVL=0     0004H   ---   delay300ns
      C01CB0H     LINE      ---       ---     ---   #148
      C01CB0H     LINE      ---       ---     ---   #150
      C01CB2H     LINE      ---       ---     ---   #151
      ---         BLOCKEND  LVL=0     ---     ---   

      C01CB4H     BLOCK     LVL=0     000EH   ---   delay
      000008H     SYMBOL    REG       ---     ---   cycle
      C01CB4H     BLOCK     LVL=1     000CH   ---   
      000005H     SYMBOL    REG       ---     ---   i
      ---         BLOCKEND  LVL=1     ---     ---   
      C01CB4H     LINE      ---       ---     ---   #153
      C01CB4H     LINE      ---       ---     ---   #154
      C01CB4H     LINE      ---       ---     ---   #155
      C01CB6H     LINE      ---       ---     ---   #157
      C01CB8H     LINE      ---       ---     ---   #159
      C01CBAH     LINE      ---       ---     ---   #160
      C01CC0H     LINE      ---       ---     ---   #161
      ---         BLOCKEND  LVL=0     ---     ---   

      C01CC2H     BLOCK     LVL=0     0016H   ---   longDelay
      000006H     SYMBOL    REG       ---     ---   cycle
      C01CC4H     BLOCK     LVL=1     0012H   ---   
      00008EH     SYMBOL    REG       ---     ---   i
      ---         BLOCKEND  LVL=1     ---     ---   
      C01CC2H     LINE      ---       ---     ---   #163
      C01CC4H     LINE      ---       ---     ---   #164
      C01CC4H     LINE      ---       ---     ---   #165
      C01CC6H     LINE      ---       ---     ---   #166
      C01CC8H     LINE      ---       ---     ---   #168
      C01CCEH     LINE      ---       ---     ---   #169
L166 LINKER/LOCATER V5.25                                                             07/13/2019  10:17:21  PAGE 21


      C01CD6H     LINE      ---       ---     ---   #170
      ---         BLOCKEND  LVL=0     ---     ---   
      C01CD8H     PUBLIC    LABEL     ---     ---   setPwmDutyCyc
      E0066CH     PUBLIC    VAR       ---     ---   ccuCntArr

      C01CD8H     BLOCK     LVL=0     00A4H   ---   setPwmDutyCyc
      000048H     SYMBOL    REG       ---     ---   pwmPort
      000049H     SYMBOL    REG       ---     ---   dutyCyc
      C01CD8H     BLOCK     LVL=1     00A2H   ---   
      000006H     SYMBOL    REG       ---     ---   dutyVal
      ---         BLOCKEND  LVL=1     ---     ---   
      C01CD8H     LINE      ---       ---     ---   #5
      C01CD8H     LINE      ---       ---     ---   #6
      C01CD8H     LINE      ---       ---     ---   #7
      C01CDAH     LINE      ---       ---     ---   #13
      C01CE2H     LINE      ---       ---     ---   #14
      C01D00H     LINE      ---       ---     ---   #15
      C01D08H     LINE      ---       ---     ---   #16
      C01D10H     LINE      ---       ---     ---   #17
      C01D18H     LINE      ---       ---     ---   #18
      C01D20H     LINE      ---       ---     ---   #19
      C01D28H     LINE      ---       ---     ---   #20
      C01D36H     LINE      ---       ---     ---   #22
      C01D36H     LINE      ---       ---     ---   #23
      C01D3AH     LINE      ---       ---     ---   #24
      C01D3CH     LINE      ---       ---     ---   #25
      C01D3CH     LINE      ---       ---     ---   #26
      C01D40H     LINE      ---       ---     ---   #27
      C01D42H     LINE      ---       ---     ---   #28
      C01D42H     LINE      ---       ---     ---   #29
      C01D46H     LINE      ---       ---     ---   #30
      C01D46H     LINE      ---       ---     ---   #31
      C01D46H     LINE      ---       ---     ---   #32
      C01D50H     LINE      ---       ---     ---   #33
      C01D5AH     LINE      ---       ---     ---   #34
      C01D62H     LINE      ---       ---     ---   #35
      C01D6AH     LINE      ---       ---     ---   #36
      C01D72H     LINE      ---       ---     ---   #37
      C01D7AH     LINE      ---       ---     ---   #38
      ---         BLOCKEND  LVL=0     ---     ---   
      C0180CH     PUBLIC    LABEL     ---     ---   EnableVcoBypass
      C018E8H     PUBLIC    LABEL     ---     ---   SCS_CountClocksWithTimer
      C0181AH     PUBLIC    LABEL     ---     ---   DisableVcoBypass
      C01828H     PUBLIC    LABEL     ---     ---   WaitForTimer13Stop
      C018E2H     PUBLIC    LABEL     ---     ---   SCS_SwitchToHighPrecBandgap
      C01856H     PUBLIC    LABEL     ---     ---   SCS_SwitchSystemClock
      C017F4H     PUBLIC    LABEL     ---     ---   SetK2
      C01832H     PUBLIC    LABEL     ---     ---   SCS_StartXtalOsc

      C017F4H     BLOCK     LVL=0     0018H   ---   SetK2
      000008H     SYMBOL    REG       ---     ---   K2
      C017F4H     LINE      ---       ---     ---   #208
      C017F4H     LINE      ---       ---     ---   #214
      C017FEH     LINE      ---       ---     ---   #217
      C01802H     LINE      ---       ---     ---   #221
      C01802H     LINE      ---       ---     ---   #238
      C0180AH     LINE      ---       ---     ---   #239
L166 LINKER/LOCATER V5.25                                                             07/13/2019  10:17:21  PAGE 22


      ---         BLOCKEND  LVL=0     ---     ---   

      C0180CH     BLOCK     LVL=0     000EH   ---   EnableVcoBypass
      C0180CH     LINE      ---       ---     ---   #262
      C0180CH     LINE      ---       ---     ---   #265
      C01810H     LINE      ---       ---     ---   #268
      C01810H     LINE      ---       ---     ---   #285
      C01818H     LINE      ---       ---     ---   #286
      ---         BLOCKEND  LVL=0     ---     ---   

      C0181AH     BLOCK     LVL=0     000EH   ---   DisableVcoBypass
      C0181AH     LINE      ---       ---     ---   #309
      C0181AH     LINE      ---       ---     ---   #312
      C0181EH     LINE      ---       ---     ---   #315
      C0181EH     LINE      ---       ---     ---   #332
      C01826H     LINE      ---       ---     ---   #333
      ---         BLOCKEND  LVL=0     ---     ---   

      C01828H     BLOCK     LVL=0     000AH   ---   WaitForTimer13Stop
      C01828H     LINE      ---       ---     ---   #358
      C01828H     LINE      ---       ---     ---   #361
      C01828H     LINE      ---       ---     ---   #370
      C01830H     LINE      ---       ---     ---   #371
      ---         BLOCKEND  LVL=0     ---     ---   

      C01832H     BLOCK     LVL=0     0024H   ---   SCS_StartXtalOsc
      000008H     SYMBOL    REG       ---     ---   UseTimer
      C0183CH     BLOCK     LVL=1     0010H   ---   
      000004H     SYMBOL    REG       ---     ---   K2?1?SetK2
      ---         BLOCKEND  LVL=1     ---     ---   
      C01832H     LINE      ---       ---     ---   #406
      C01832H     LINE      ---       ---     ---   #427
      C01838H     LINE      ---       ---     ---   #430
      C0183CH     LINE      ---       ---     ---   #442
      C0183CH     LINE      ---       ---     ---   #214
      C01842H     LINE      ---       ---     ---   #217
      C01844H     LINE      ---       ---     ---   #221
      C01844H     LINE      ---       ---     ---   #238
      C0184CH     LINE      ---       ---     ---   #445
      C01854H     LINE      ---       ---     ---   #446
      ---         BLOCKEND  LVL=0     ---     ---   

      C01856H     BLOCK     LVL=0     008CH   ---   SCS_SwitchSystemClock
      000008H     SYMBOL    REG       ---     ---   UseTimer
      C01862H     BLOCK     LVL=1     0010H   ---   
      000004H     SYMBOL    REG       ---     ---   K2?3?SetK2
      ---         BLOCKEND  LVL=1     ---     ---   
      C0188CH     BLOCK     LVL=1     0010H   ---   
      000004H     SYMBOL    REG       ---     ---   K2?5?SetK2
      ---         BLOCKEND  LVL=1     ---     ---   
      C018A8H     BLOCK     LVL=1     0010H   ---   
      000004H     SYMBOL    REG       ---     ---   K2?7?SetK2
      ---         BLOCKEND  LVL=1     ---     ---   
      C018B8H     BLOCK     LVL=1     0010H   ---   
      000004H     SYMBOL    REG       ---     ---   K2?8?SetK2
      ---         BLOCKEND  LVL=1     ---     ---   
      C01856H     LINE      ---       ---     ---   #485
L166 LINKER/LOCATER V5.25                                                             07/13/2019  10:17:21  PAGE 23


      C01856H     LINE      ---       ---     ---   #487
      C0185AH     LINE      ---       ---     ---   #361
      C0185AH     LINE      ---       ---     ---   #370
      C01862H     LINE      ---       ---     ---   #502
      C01862H     LINE      ---       ---     ---   #214
      C01868H     LINE      ---       ---     ---   #217
      C0186AH     LINE      ---       ---     ---   #221
      C0186AH     LINE      ---       ---     ---   #238
      C01872H     LINE      ---       ---     ---   #504
      C01872H     LINE      ---       ---     ---   #509
      C01878H     LINE      ---       ---     ---   #265
      C0187AH     LINE      ---       ---     ---   #268
      C0187AH     LINE      ---       ---     ---   #285
      C01882H     LINE      ---       ---     ---   #534
      C01888H     LINE      ---       ---     ---   #558
      C0188CH     LINE      ---       ---     ---   #563
      C0188CH     LINE      ---       ---     ---   #214
      C01890H     LINE      ---       ---     ---   #217
      C01894H     LINE      ---       ---     ---   #221
      C01894H     LINE      ---       ---     ---   #238
      C0189CH     LINE      ---       ---     ---   #312
      C018A0H     LINE      ---       ---     ---   #315
      C018A0H     LINE      ---       ---     ---   #332
      C018A8H     LINE      ---       ---     ---   #569
      C018A8H     LINE      ---       ---     ---   #214
      C018AEH     LINE      ---       ---     ---   #217
      C018B0H     LINE      ---       ---     ---   #221
      C018B0H     LINE      ---       ---     ---   #238
      C018B8H     LINE      ---       ---     ---   #576
      C018B8H     LINE      ---       ---     ---   #214
      C018BEH     LINE      ---       ---     ---   #217
      C018C0H     LINE      ---       ---     ---   #221
      C018C0H     LINE      ---       ---     ---   #238
      C018C8H     LINE      ---       ---     ---   #587
      C018CEH     LINE      ---       ---     ---   #589
      C018D2H     LINE      ---       ---     ---   #591
      C018D6H     LINE      ---       ---     ---   #593
      C018DAH     LINE      ---       ---     ---   #595
      C018E0H     LINE      ---       ---     ---   #597
      ---         BLOCKEND  LVL=0     ---     ---   

      C018E2H     BLOCK     LVL=0     0006H   ---   SCS_SwitchToHighPrecBandgap
      C018E2H     LINE      ---       ---     ---   #627
      C018E2H     LINE      ---       ---     ---   #674
      C018E6H     LINE      ---       ---     ---   #676
      ---         BLOCKEND  LVL=0     ---     ---   

      C018E8H     BLOCK     LVL=0     0066H   ---   SCS_CountClocksWithTimer
      000008H     SYMBOL    REG       ---     ---   Source
      000009H     SYMBOL    REG       ---     ---   Clocks
      C018EAH     BLOCK     LVL=1     0060H   ---   
      000000H     SYMBOL    AUTO      ---     ---   Work
      ---         BLOCKEND  LVL=1     ---     ---   
      C018E8H     LINE      ---       ---     ---   #717
      C018EAH     LINE      ---       ---     ---   #718
      C018EAH     LINE      ---       ---     ---   #733
      C018F4H     LINE      ---       ---     ---   #735
L166 LINKER/LOCATER V5.25                                                             07/13/2019  10:17:21  PAGE 24


      C018FAH     LINE      ---       ---     ---   #740
      C01904H     LINE      ---       ---     ---   #756
      C0190CH     LINE      ---       ---     ---   #759
      C01914H     LINE      ---       ---     ---   #775
      C0191CH     LINE      ---       ---     ---   #805
      C0192AH     LINE      ---       ---     ---   #817
      C01938H     LINE      ---       ---     ---   #839
      C01942H     LINE      ---       ---     ---   #857
      C0194AH     LINE      ---       ---     ---   #860
      ---         BLOCKEND  LVL=0     ---     ---   
      C00104H     PUBLIC    LABEL     ---     ---   ?C_STARTUP
      000000H     PUBLIC    CONST     ---     ---   ?L?VECSC
      E00000H     PUBLIC    VAR       ---     ---   ?C_USRSTKBOT
      00F600H     PUBLIC    VAR       ---     ---   ?C_SYSSTKBOT
      00F800H     PUBLIC    VAR       ---     ---   ?C_SYSSTKTOP
      000000H     GLOBAL    INTNO     ---     ---   RESET
      000000H     SYMBOL    RBANK     ---     ---   ?C_MAINREGISTERS
      E00200H     SYMBOL    VAR       ---     ---   ?C_USERSTKTOP
      E00220H     SYMBOL    VAR       ---     ---   ?C_USERSTKTOP1
      E00240H     SYMBOL    VAR       ---     ---   ?C_USERSTKTOP2
      E00200H     SYMBOL    VAR       ---     ---   ?C_USRSTKBOT1
      E00220H     SYMBOL    VAR       ---     ---   ?C_USRSTKBOT2
      00FE10H     SYMBOL    SFR       ---     ---   CP
      00FE00H     SYMBOL    SFR       ---     ---   DPP0
      00FE02H     SYMBOL    SFR       ---     ---   DPP1
      00FE04H     SYMBOL    SFR       ---     ---   DPP2
      00FE06H     SYMBOL    SFR       ---     ---   DPP3
      00F1B4H     SYMBOL    ESFR      ---     ---   HPOSCCON
      000400H     SYMBOL    CONST     ---     ---   KB
      00F1B8H     SYMBOL    ESFR      ---     ---   PLLCON0
      00F1B9H.7   SYMBOL    ESBIT     ---     ---   PLLCON0_NACK
      00F1BAH     SYMBOL    ESFR      ---     ---   PLLCON1
      00F1BBH.7   SYMBOL    ESBIT     ---     ---   PLLCON1_PACK
      00F1BCH     SYMBOL    ESFR      ---     ---   PLLCON2
      00F1BDH.7   SYMBOL    ESBIT     ---     ---   PLLCON2_K1ACK
      00F1BEH     SYMBOL    ESFR      ---     ---   PLLCON3
      00F1BFH.7   SYMBOL    ESBIT     ---     ---   PLLCON3_K2ACK
      00F0BCH     SYMBOL    ESFR      ---     ---   PLLSTAT
      00FF10H     SYMBOL    SFR       ---     ---   PSW
      00FE12H     SYMBOL    SFR       ---     ---   SP
      00FF0CH     SYMBOL    SFR       ---     ---   SPSEG
      000200H     SYMBOL    CONST     ---     ---   SSTSZ
      00F0E2H     SYMBOL    ESFR      ---     ---   STATCLR1
      00FE14H     SYMBOL    SFR       ---     ---   STKOV
      00FE16H     SYMBOL    SFR       ---     ---   STKUN
      000020H     SYMBOL    CONST     ---     ---   UST1SZ
      000020H     SYMBOL    CONST     ---     ---   UST2SZ
      000200H     SYMBOL    CONST     ---     ---   USTSZ
      000000H     SYMBOL    CONST     ---     ---   _AOSCSEL
      00F600H     SYMBOL    VAR       ---     ---   _BOS
      000000H     SYMBOL    CONST     ---     ---   _HPOSCCON
      000000H     SYMBOL    CONST     ---     ---   _HP_EMCLKEN
      000000H     SYMBOL    CONST     ---     ---   _HP_EMFINDISEN
      000001H     SYMBOL    CONST     ---     ---   _K1DIV
      000001H     SYMBOL    CONST     ---     ---   _K2DIV
      000000H     SYMBOL    CONST     ---     ---   _MODE
      000013H     SYMBOL    CONST     ---     ---   _NDIV
L166 LINKER/LOCATER V5.25                                                             07/13/2019  10:17:21  PAGE 25


      000000H     SYMBOL    CONST     ---     ---   _OSCSEL
      000000H     SYMBOL    CONST     ---     ---   _OSCWDTRST
      000000H     SYMBOL    CONST     ---     ---   _PDIV
      001305H     SYMBOL    CONST     ---     ---   _PLLCON0
      000000H     SYMBOL    CONST     ---     ---   _PLLCON1
      000000H     SYMBOL    CONST     ---     ---   _PLLPWD
      000000H     SYMBOL    CONST     ---     ---   _PLL_EMCLKEN
      000000H     SYMBOL    CONST     ---     ---   _PLL_EMFINDISEN
      000000H     SYMBOL    CONST     ---     ---   _SHBY
      000002H     SYMBOL    CONST     ---     ---   _TMP_K2DIV
      00F800H     SYMBOL    VAR       ---     ---   _TOS
      000000H     SYMBOL    CONST     ---     ---   _VCOBY
      000000H     SYMBOL    CONST     ---     ---   _VCOPWD
      000001H     SYMBOL    CONST     ---     ---   _VCOSEL
      000000H     SYMBOL    CONST     ---     ---   _VECSC
      000000H     SYMBOL    CONST     ---     ---   _X1DEN

      C00104H     BLOCK     LVL=0     01CAH   ---   ?C_RESET
      C00104H     LINE      ---       ---     ---   #1414
      C00108H     LINE      ---       ---     ---   #1424
      C0010CH     LINE      ---       ---     ---   #1425
      C00110H     LINE      ---       ---     ---   #1426
      C00114H     LINE      ---       ---     ---   #1427
      C00118H     LINE      ---       ---     ---   #1588
      C0011AH     LINE      ---       ---     ---   #1589
      C0011EH     LINE      ---       ---     ---   #1591
      C00120H     LINE      ---       ---     ---   #1593
      C00122H     LINE      ---       ---     ---   #1594
      C00126H     LINE      ---       ---     ---   #1595
      C0012AH     LINE      ---       ---     ---   #1596
      C0012CH     LINE      ---       ---     ---   #1597
      C00130H     LINE      ---       ---     ---   #1598
      C00134H     LINE      ---       ---     ---   #1606
      C00136H     LINE      ---       ---     ---   #1607
      C0013AH     LINE      ---       ---     ---   #1608
      C0013EH     LINE      ---       ---     ---   #1621
      C00140H     LINE      ---       ---     ---   #1625
      C00144H     LINE      ---       ---     ---   #1628
      C00146H     LINE      ---       ---     ---   #1629
      C0014AH     LINE      ---       ---     ---   #1630
      C0014CH     LINE      ---       ---     ---   #1631
      C0014EH     LINE      ---       ---     ---   #1632
      C00152H     LINE      ---       ---     ---   #1633
      C00156H     LINE      ---       ---     ---   #1634
      C00158H     LINE      ---       ---     ---   #1637
      C0015AH     LINE      ---       ---     ---   #1638
      C0015EH     LINE      ---       ---     ---   #1639
      C00162H     LINE      ---       ---     ---   #1645
      C00164H     LINE      ---       ---     ---   #1646
      C00168H     LINE      ---       ---     ---   #1650
      C0016CH     LINE      ---       ---     ---   #1651
      C00170H     LINE      ---       ---     ---   #1655
      C00172H     LINE      ---       ---     ---   #1656
      C00176H     LINE      ---       ---     ---   #1661
      C00178H     LINE      ---       ---     ---   #1662
      C0017CH     LINE      ---       ---     ---   #1664
      C0017EH     LINE      ---       ---     ---   #1665
L166 LINKER/LOCATER V5.25                                                             07/13/2019  10:17:21  PAGE 26


      C00182H     LINE      ---       ---     ---   #1666
      C00186H     LINE      ---       ---     ---   #1668
      C00188H     LINE      ---       ---     ---   #1669
      C0018CH     LINE      ---       ---     ---   #1671
      C00190H     LINE      ---       ---     ---   #1672
      C00194H     LINE      ---       ---     ---   #1675
      C00196H     LINE      ---       ---     ---   #1676
      C0019AH     LINE      ---       ---     ---   #1680
      C0019CH     LINE      ---       ---     ---   #1681
      C001A0H     LINE      ---       ---     ---   #1683
      C001A2H     LINE      ---       ---     ---   #1684
      C001A6H     LINE      ---       ---     ---   #1686
      C001A8H     LINE      ---       ---     ---   #1687
      C001ACH     LINE      ---       ---     ---   #1692
      C001AEH     LINE      ---       ---     ---   #1693
      C001B2H     LINE      ---       ---     ---   #1715
      C001B6H     LINE      ---       ---     ---   #1717
      C001BAH     LINE      ---       ---     ---   #1718
      C001BEH     LINE      ---       ---     ---   #1722
      C001C2H     LINE      ---       ---     ---   #1724
      C001C6H     LINE      ---       ---     ---   #1728
      C001CAH     LINE      ---       ---     ---   #1729
      C001CEH     LINE      ---       ---     ---   #1733
      C001D2H     LINE      ---       ---     ---   #1734
      C001D6H     LINE      ---       ---     ---   #1738
      C001DAH     LINE      ---       ---     ---   #1741
      C001DEH     LINE      ---       ---     ---   #1793
      C001E2H     LINE      ---       ---     ---   #1794
      C001E6H     LINE      ---       ---     ---   #1795
      C001E8H     LINE      ---       ---     ---   #1796
      C001EAH     LINE      ---       ---     ---   #1797
      C001ECH     LINE      ---       ---     ---   #1803
      C001EEH     LINE      ---       ---     ---   #1804
      C001F0H     LINE      ---       ---     ---   #1805
      C001F2H     LINE      ---       ---     ---   #1806
      C001F4H     LINE      ---       ---     ---   #1807
      C001F6H     LINE      ---       ---     ---   #1808
      C001F8H     LINE      ---       ---     ---   #1809
      C001FAH     LINE      ---       ---     ---   #1810
      C001FEH     LINE      ---       ---     ---   #1811
      C00202H     LINE      ---       ---     ---   #1813
      C00204H     LINE      ---       ---     ---   #1814
      C00206H     LINE      ---       ---     ---   #1815
      C00208H     LINE      ---       ---     ---   #1816
      C0020CH     LINE      ---       ---     ---   #1817
      C0020EH     LINE      ---       ---     ---   #1818
      C00210H     LINE      ---       ---     ---   #1819
      C00212H     LINE      ---       ---     ---   #1820
      C00214H     LINE      ---       ---     ---   #1821
      C00216H     LINE      ---       ---     ---   #1822
      C00218H     LINE      ---       ---     ---   #1823
      C0021AH     LINE      ---       ---     ---   #1824
      C0021CH     LINE      ---       ---     ---   #1825
      C0021EH     LINE      ---       ---     ---   #1827
      C00220H     LINE      ---       ---     ---   #1828
      C00222H     LINE      ---       ---     ---   #1833
      C00224H     LINE      ---       ---     ---   #1834
L166 LINKER/LOCATER V5.25                                                             07/13/2019  10:17:21  PAGE 27


      C00226H     LINE      ---       ---     ---   #1835
      C00228H     LINE      ---       ---     ---   #1836
      C0022AH     LINE      ---       ---     ---   #1837
      C0022EH     LINE      ---       ---     ---   #1838
      C00230H     LINE      ---       ---     ---   #1839
      C00232H     LINE      ---       ---     ---   #1840
      C00234H     LINE      ---       ---     ---   #1846
      C00236H     LINE      ---       ---     ---   #1847
      C00238H     LINE      ---       ---     ---   #1848
      C0023AH     LINE      ---       ---     ---   #1849
      C0023CH     LINE      ---       ---     ---   #1850
      C0023EH     LINE      ---       ---     ---   #1911
      C00242H     LINE      ---       ---     ---   #1912
      C00246H     LINE      ---       ---     ---   #1918
      C0024AH     LINE      ---       ---     ---   #1919
      C0024CH     LINE      ---       ---     ---   #1920
      C0024EH     LINE      ---       ---     ---   #1921
      C00250H     LINE      ---       ---     ---   #1922
      C00252H     LINE      ---       ---     ---   #1923
      C00254H     LINE      ---       ---     ---   #1924
      C00258H     LINE      ---       ---     ---   #1925
      C0025AH     LINE      ---       ---     ---   #1926
      C0025EH     LINE      ---       ---     ---   #1927
      C00260H     LINE      ---       ---     ---   #1928
      C00262H     LINE      ---       ---     ---   #1929
      C00264H     LINE      ---       ---     ---   #1930
      C00266H     LINE      ---       ---     ---   #1931
      C00268H     LINE      ---       ---     ---   #1932
      C0026AH     LINE      ---       ---     ---   #1933
      C0026CH     LINE      ---       ---     ---   #1934
      C0026EH     LINE      ---       ---     ---   #1935
      C00270H     LINE      ---       ---     ---   #1936
      C00272H     LINE      ---       ---     ---   #1937
      C00276H     LINE      ---       ---     ---   #1938
      C0027AH     LINE      ---       ---     ---   #1939
      C0027CH     LINE      ---       ---     ---   #1940
      C0027EH     LINE      ---       ---     ---   #1941
      C00280H     LINE      ---       ---     ---   #1942
      C00282H     LINE      ---       ---     ---   #1943
      C00284H     LINE      ---       ---     ---   #1944
      C00286H     LINE      ---       ---     ---   #1945
      C00288H     LINE      ---       ---     ---   #1946
      C0028AH     LINE      ---       ---     ---   #1947
      C0028CH     LINE      ---       ---     ---   #1948
      C0028EH     LINE      ---       ---     ---   #1949
      C00292H     LINE      ---       ---     ---   #1950
      C00296H     LINE      ---       ---     ---   #1951
      C0029AH     LINE      ---       ---     ---   #1952
      C0029EH     LINE      ---       ---     ---   #1957
      C002A0H     LINE      ---       ---     ---   #1958
      C002A2H     LINE      ---       ---     ---   #1959
      C002A6H     LINE      ---       ---     ---   #1960
      C002A8H     LINE      ---       ---     ---   #1961
      C002AAH     LINE      ---       ---     ---   #1962
      C002ACH     LINE      ---       ---     ---   #1964
      C002AEH     LINE      ---       ---     ---   #1965
      C002B0H     LINE      ---       ---     ---   #1966
L166 LINKER/LOCATER V5.25                                                             07/13/2019  10:17:21  PAGE 28


      C002B4H     LINE      ---       ---     ---   #1967
      C002B6H     LINE      ---       ---     ---   #1968
      C002B8H     LINE      ---       ---     ---   #1969
      C002BAH     LINE      ---       ---     ---   #1970
      C002BEH     LINE      ---       ---     ---   #1971
      C002C0H     LINE      ---       ---     ---   #1972
      C002C2H     LINE      ---       ---     ---   #1973
      C002C4H     LINE      ---       ---     ---   #1974
      C002C6H     LINE      ---       ---     ---   #1975
      C002C8H     LINE      ---       ---     ---   #1976
      C002CAH     LINE      ---       ---     ---   #2065
      C002CAH     SYMBOL    LABEL     ---     ---   EndInit
      C002C6H     SYMBOL    LABEL     ---     ---   StoreBit
      C002C4H     SYMBOL    LABEL     ---     ---   SetBit
      C002ACH     SYMBOL    LABEL     ---     ---   InitBit
      C0029EH     SYMBOL    LABEL     ---     ---   NoDPP3Adj
      C00282H     SYMBOL    LABEL     ---     ---   CopyInitVal
      C0026AH     SYMBOL    LABEL     ---     ---   LenLoad
      C00246H     SYMBOL    LABEL     ---     ---   RepeatInit
      C0023EH     SYMBOL    LABEL     ---     ---   Init_Vars
      C0023EH     SYMBOL    LABEL     ---     ---   EndClear
      C00234H     SYMBOL    LABEL     ---     ---   ClearNear
      C00222H     SYMBOL    LABEL     ---     ---   RepClearFar
      C0021EH     SYMBOL    LABEL     ---     ---   ClearFar
      C00202H     SYMBOL    LABEL     ---     ---   ClearBit
      C001ECH     SYMBOL    LABEL     ---     ---   RepeatClear
      C001DEH     SYMBOL    LABEL     ---     ---   Clr_Memory
      C0018CH     SYMBOL    LABEL     ---     ---   WNBY
      C0017CH     SYMBOL    LABEL     ---     ---   WLOK
      C0014CH     SYMBOL    LABEL     ---     ---   WBY
      C00120H     SYMBOL    LABEL     ---     ---   WHPO
      ---         BLOCKEND  LVL=0     ---     ---   

      C002CEH     BLOCK     LVL=0     00C8H   ---   ?C_UTILFUNCS
      C002CEH     LINE      ---       ---     ---   #2071
      C002D2H     LINE      ---       ---     ---   #2072
      C002D4H     LINE      ---       ---     ---   #2073
      C002D6H     LINE      ---       ---     ---   #2074
      C002D8H     LINE      ---       ---     ---   #2076
      C002DCH     LINE      ---       ---     ---   #2077
      C002DEH     LINE      ---       ---     ---   #2078
      C002E0H     LINE      ---       ---     ---   #2079
      C002E2H     LINE      ---       ---     ---   #2081
      C002E6H     LINE      ---       ---     ---   #2082
      C002EAH     LINE      ---       ---     ---   #2083
      C002ECH     LINE      ---       ---     ---   #2084
      C002EEH     LINE      ---       ---     ---   #2086
      C002F2H     LINE      ---       ---     ---   #2088
      C002F6H     LINE      ---       ---     ---   #2089
      C002FAH     LINE      ---       ---     ---   #2091
      C002FCH     LINE      ---       ---     ---   #2092
      C002FEH     LINE      ---       ---     ---   #2093
      C00302H     LINE      ---       ---     ---   #2094
      C00306H     LINE      ---       ---     ---   #2096
      C00308H     LINE      ---       ---     ---   #2099
      C0030CH     LINE      ---       ---     ---   #2100
      C00310H     LINE      ---       ---     ---   #2101
L166 LINKER/LOCATER V5.25                                                             07/13/2019  10:17:21  PAGE 29


      C00312H     LINE      ---       ---     ---   #2102
      C00314H     LINE      ---       ---     ---   #2104
      C00318H     LINE      ---       ---     ---   #2106
      C0031CH     LINE      ---       ---     ---   #2107
      C00320H     LINE      ---       ---     ---   #2109
      C00322H     LINE      ---       ---     ---   #2110
      C00324H     LINE      ---       ---     ---   #2112
      C00328H     LINE      ---       ---     ---   #2113
      C0032CH     LINE      ---       ---     ---   #2115
      C0032EH     LINE      ---       ---     ---   #2118
      C00332H     LINE      ---       ---     ---   #2119
      C00334H     LINE      ---       ---     ---   #2120
      C00338H     LINE      ---       ---     ---   #2121
      C0033AH     LINE      ---       ---     ---   #2122
      C0033CH     LINE      ---       ---     ---   #2123
      C00340H     LINE      ---       ---     ---   #2124
      C00342H     LINE      ---       ---     ---   #2126
      C00344H     LINE      ---       ---     ---   #2127
      C00348H     LINE      ---       ---     ---   #2128
      C0034CH     LINE      ---       ---     ---   #2129
      C00350H     LINE      ---       ---     ---   #2130
      C00354H     LINE      ---       ---     ---   #2131
      C00356H     LINE      ---       ---     ---   #2132
      C00358H     LINE      ---       ---     ---   #2133
      C0035CH     LINE      ---       ---     ---   #2134
      C00360H     LINE      ---       ---     ---   #2135
      C00362H     LINE      ---       ---     ---   #2138
      C00366H     LINE      ---       ---     ---   #2139
      C00368H     LINE      ---       ---     ---   #2140
      C0036CH     LINE      ---       ---     ---   #2141
      C0036EH     LINE      ---       ---     ---   #2142
      C00370H     LINE      ---       ---     ---   #2143
      C00374H     LINE      ---       ---     ---   #2144
      C00376H     LINE      ---       ---     ---   #2146
      C00378H     LINE      ---       ---     ---   #2147
      C0037CH     LINE      ---       ---     ---   #2148
      C00380H     LINE      ---       ---     ---   #2149
      C00384H     LINE      ---       ---     ---   #2150
      C00388H     LINE      ---       ---     ---   #2151
      C0038AH     LINE      ---       ---     ---   #2152
      C0038CH     LINE      ---       ---     ---   #2153
      C00390H     LINE      ---       ---     ---   #2154
      C00394H     LINE      ---       ---     ---   #2155
      C0038CH     SYMBOL    LABEL     ---     ---   NSETLoop
      C00380H     SYMBOL    LABEL     ---     ---   NCLRLoop
      C00376H     SYMBOL    LABEL     ---     ---   AppNDiv
      C00362H     SYMBOL    LABEL     ---     ---   ApplyNewNDiv
      C00358H     SYMBOL    LABEL     ---     ---   PSETLoop
      C0034CH     SYMBOL    LABEL     ---     ---   PCLRLoop
      C00342H     SYMBOL    LABEL     ---     ---   AppPDiv
      C0032EH     SYMBOL    LABEL     ---     ---   ApplyNewPDiv
      C0032CH     SYMBOL    LABEL     ---     ---   K2DivDone
      C00324H     SYMBOL    LABEL     ---     ---   K2SETLoop
      C00318H     SYMBOL    LABEL     ---     ---   K2CLRLoop
      C00308H     SYMBOL    LABEL     ---     ---   ApplyNewK2Div
      C00306H     SYMBOL    LABEL     ---     ---   K1DivDone
      C002FEH     SYMBOL    LABEL     ---     ---   K1SETLoop
L166 LINKER/LOCATER V5.25                                                             07/13/2019  10:17:21  PAGE 30


      C002F2H     SYMBOL    LABEL     ---     ---   K1CLRLoop
      C002E2H     SYMBOL    LABEL     ---     ---   ApplyNewK1Div
      C002DCH     SYMBOL    LABEL     ---     ---   Del2
      C002D8H     SYMBOL    LABEL     ---     ---   Delay200us
      C002D2H     SYMBOL    LABEL     ---     ---   Del1
      C002CEH     SYMBOL    LABEL     ---     ---   Delay1ms
      ---         BLOCKEND  LVL=0     ---     ---   
      C01D7CH     PUBLIC    LABEL     ---     ---   IO_vInit

      C01D7CH     BLOCK     LVL=0     000AH   ---   IO_vInit
      C01D7CH     LINE      ---       ---     ---   #122
      C01D7CH     LINE      ---       ---     ---   #199
      C01D84H     LINE      ---       ---     ---   #213
      ---         BLOCKEND  LVL=0     ---     ---   
      C00E9AH     PUBLIC    LABEL     ---     ---   CAN_vInit
      C011EEH     PUBLIC    LABEL     ---     ---   CAN_ubWriteFIFO
      C014D8H     PUBLIC    LABEL     ---     ---   CAN_viSRN0
      C0135EH     PUBLIC    LABEL     ---     ---   CAN_ubReadFIFO
      C0118AH     PUBLIC    LABEL     ---     ---   CAN_vLoadData
      C01032H     PUBLIC    LABEL     ---     ---   CAN_vGetMsgObj
      C01176H     PUBLIC    LABEL     ---     ---   CAN_vTransmit
      E00656H     PUBLIC    VAR       ---     ---   msgObj0x505
      E0066AH     SYMBOL    VAR       ---     ---   ubFIFOWritePtr
      E0066BH     SYMBOL    VAR       ---     ---   ubFIFOReadPtr

      C00E9AH     BLOCK     LVL=0     0198H   ---   CAN_vInit
      C00E9AH     BLOCK     LVL=1     0196H   ---   
      00008CH     SYMBOL    REG       ---     ---   i
      ---         BLOCKEND  LVL=1     ---     ---   
      C00E9AH     LINE      ---       ---     ---   #128
      C00E9AH     LINE      ---       ---     ---   #129
      C00E9AH     LINE      ---       ---     ---   #142
      C00E9EH     LINE      ---       ---     ---   #144
      C00EA0H     LINE      ---       ---     ---   #146
      C00EA2H     LINE      ---       ---     ---   #155
      C00EAEH     LINE      ---       ---     ---   #162
      C00EAEH     LINE      ---       ---     ---   #164
      C00EBAH     LINE      ---       ---     ---   #175
      C00EC6H     LINE      ---       ---     ---   #179
      C00ED0H     LINE      ---       ---     ---   #186
      C00ED8H     LINE      ---       ---     ---   #187
      C00EE2H     LINE      ---       ---     ---   #198
      C00EEEH     LINE      ---       ---     ---   #203
      C00EFAH     LINE      ---       ---     ---   #204
      C00F04H     LINE      ---       ---     ---   #211
      C00F08H     LINE      ---       ---     ---   #212
      C00F0CH     LINE      ---       ---     ---   #221
      C00F18H     LINE      ---       ---     ---   #230
      C00F1CH     LINE      ---       ---     ---   #239
      C00F20H     LINE      ---       ---     ---   #248
      C00F28H     LINE      ---       ---     ---   #256
      C00F4AH     LINE      ---       ---     ---   #258
      C00F6CH     LINE      ---       ---     ---   #272
      C00F78H     LINE      ---       ---     ---   #273
      C00F82H     LINE      ---       ---     ---   #281
      C00F8EH     LINE      ---       ---     ---   #282
      C00F98H     LINE      ---       ---     ---   #288
L166 LINKER/LOCATER V5.25                                                             07/13/2019  10:17:21  PAGE 31


      C00FA4H     LINE      ---       ---     ---   #289
      C00FB0H     LINE      ---       ---     ---   #295
      C00FBAH     LINE      ---       ---     ---   #296
      C00FBEH     LINE      ---       ---     ---   #300
      C00FC2H     LINE      ---       ---     ---   #302
      C00FCAH     LINE      ---       ---     ---   #311
      C00FD6H     LINE      ---       ---     ---   #312
      C00FE0H     LINE      ---       ---     ---   #831
      C00FE6H     LINE      ---       ---     ---   #840
      C00FEAH     LINE      ---       ---     ---   #848
      C00FECH     LINE      ---       ---     ---   #850
      C01004H     LINE      ---       ---     ---   #851
      C01016H     LINE      ---       ---     ---   #852
      C0101CH     LINE      ---       ---     ---   #860
      C01030H     LINE      ---       ---     ---   #868
      ---         BLOCKEND  LVL=0     ---     ---   

      C01032H     BLOCK     LVL=0     0144H   ---   CAN_vGetMsgObj
      000084H     SYMBOL    REG       ---     ---   ubObjNr
      00000AH     SYMBOL    REG       ---     ---   pstObj
      C01036H     BLOCK     LVL=1     013EH   ---   
      00008EH     SYMBOL    REG       ---     ---   i
      ---         BLOCKEND  LVL=1     ---     ---   
      C01032H     LINE      ---       ---     ---   #901
      C01036H     LINE      ---       ---     ---   #902
      C01036H     LINE      ---       ---     ---   #906
      C0104CH     LINE      ---       ---     ---   #909
      C01050H     LINE      ---       ---     ---   #911
      C0106AH     LINE      ---       ---     ---   #912
      C01072H     LINE      ---       ---     ---   #915
      C0108EH     LINE      ---       ---     ---   #918
      C0109EH     LINE      ---       ---     ---   #921
      C010C6H     LINE      ---       ---     ---   #923
      C010D0H     LINE      ---       ---     ---   #924
      C010D2H     LINE      ---       ---     ---   #928
      C010EAH     LINE      ---       ---     ---   #929
      C010EAH     LINE      ---       ---     ---   #932
      C01106H     LINE      ---       ---     ---   #934
      C0111EH     LINE      ---       ---     ---   #935
      C01120H     LINE      ---       ---     ---   #938
      C01148H     LINE      ---       ---     ---   #939
      C01148H     LINE      ---       ---     ---   #942
      C01164H     LINE      ---       ---     ---   #945
      C01174H     LINE      ---       ---     ---   #947
      ---         BLOCKEND  LVL=0     ---     ---   

      C01176H     BLOCK     LVL=0     0014H   ---   CAN_vTransmit
      000048H     SYMBOL    REG       ---     ---   ubObjNr
      C01176H     LINE      ---       ---     ---   #976
      C01176H     LINE      ---       ---     ---   #979
      C01188H     LINE      ---       ---     ---   #981
      ---         BLOCKEND  LVL=0     ---     ---   

      C0118AH     BLOCK     LVL=0     0064H   ---   CAN_vLoadData
      000048H     SYMBOL    REG       ---     ---   ubObjNr
      000009H     SYMBOL    REG       ---     ---   ubpubData
      C0118AH     BLOCK     LVL=1     0062H   ---   
L166 LINKER/LOCATER V5.25                                                             07/13/2019  10:17:21  PAGE 32


      00008EH     SYMBOL    REG       ---     ---   i
      ---         BLOCKEND  LVL=1     ---     ---   
      C0118AH     LINE      ---       ---     ---   #1012
      C0118AH     LINE      ---       ---     ---   #1013
      C0118AH     LINE      ---       ---     ---   #1016
      C0119AH     LINE      ---       ---     ---   #1018
      C0119EH     LINE      ---       ---     ---   #1020
      C011B2H     LINE      ---       ---     ---   #1021
      C011CEH     LINE      ---       ---     ---   #1023
      C011E0H     LINE      ---       ---     ---   #1024
      C011ECH     LINE      ---       ---     ---   #1026
      ---         BLOCKEND  LVL=0     ---     ---   

      C011EEH     BLOCK     LVL=0     0170H   ---   CAN_ubWriteFIFO
      000048H     SYMBOL    REG       ---     ---   ubObjNr
      000009H     SYMBOL    REG       ---     ---   pstObj
      C011EEH     BLOCK     LVL=1     016EH   ---   
      00008EH     SYMBOL    REG       ---     ---   i
      000084H     SYMBOL    REG       ---     ---   j
      000086H     SYMBOL    REG       ---     ---   ubReturn
      ---         BLOCKEND  LVL=1     ---     ---   
      C011EEH     LINE      ---       ---     ---   #1066
      C011EEH     LINE      ---       ---     ---   #1067
      C011EEH     LINE      ---       ---     ---   #1071
      C011F0H     LINE      ---       ---     ---   #1073
      C0120AH     LINE      ---       ---     ---   #1075
      C0120EH     LINE      ---       ---     ---   #1077
      C01210H     LINE      ---       ---     ---   #1078
      C01224H     LINE      ---       ---     ---   #1080
      C01238H     LINE      ---       ---     ---   #1083
      C0124AH     LINE      ---       ---     ---   #1084
      C0124CH     LINE      ---       ---     ---   #1088
      C01260H     LINE      ---       ---     ---   #1089
      C01260H     LINE      ---       ---     ---   #1091
      C0126EH     LINE      ---       ---     ---   #1093
      C0127EH     LINE      ---       ---     ---   #1095
      C01286H     LINE      ---       ---     ---   #1097
      C012A6H     LINE      ---       ---     ---   #1098
      C012B6H     LINE      ---       ---     ---   #1099
      C012B8H     LINE      ---       ---     ---   #1102
      C012E0H     LINE      ---       ---     ---   #1103
      C012EAH     LINE      ---       ---     ---   #1104
      C012EAH     LINE      ---       ---     ---   #1106
      C012FEH     LINE      ---       ---     ---   #1107
      C0131AH     LINE      ---       ---     ---   #1109
      C0131EH     LINE      ---       ---     ---   #1111
      C01338H     LINE      ---       ---     ---   #1112
      C01348H     LINE      ---       ---     ---   #1114
      C01358H     LINE      ---       ---     ---   #1116
      C0135AH     LINE      ---       ---     ---   #1117
      C0135AH     LINE      ---       ---     ---   #1119
      C0135CH     LINE      ---       ---     ---   #1121
      ---         BLOCKEND  LVL=0     ---     ---   

      C0135EH     BLOCK     LVL=0     017AH   ---   CAN_ubReadFIFO
      000048H     SYMBOL    REG       ---     ---   ubObjNr
      00000AH     SYMBOL    REG       ---     ---   pstObj
L166 LINKER/LOCATER V5.25                                                             07/13/2019  10:17:21  PAGE 33


      C01360H     BLOCK     LVL=1     0176H   ---   
      00008EH     SYMBOL    REG       ---     ---   i
      000082H     SYMBOL    REG       ---     ---   j
      000084H     SYMBOL    REG       ---     ---   ubReturn
      ---         BLOCKEND  LVL=1     ---     ---   
      C0135EH     LINE      ---       ---     ---   #1161
      C01360H     LINE      ---       ---     ---   #1162
      C01360H     LINE      ---       ---     ---   #1166
      C01362H     LINE      ---       ---     ---   #1168
      C0137CH     LINE      ---       ---     ---   #1170
      C01380H     LINE      ---       ---     ---   #1172
      C01382H     LINE      ---       ---     ---   #1173
      C01396H     LINE      ---       ---     ---   #1175
      C013A0H     LINE      ---       ---     ---   #1177
      C013B0H     LINE      ---       ---     ---   #1180
      C013C2H     LINE      ---       ---     ---   #1181
      C013C4H     LINE      ---       ---     ---   #1185
      C013D8H     LINE      ---       ---     ---   #1186
      C013D8H     LINE      ---       ---     ---   #1189
      C013E4H     LINE      ---       ---     ---   #1191
      C013F0H     LINE      ---       ---     ---   #1192
      C013F4H     LINE      ---       ---     ---   #1193
      C013F4H     LINE      ---       ---     ---   #1195
      C01406H     LINE      ---       ---     ---   #1197
      C0140AH     LINE      ---       ---     ---   #1199
      C01424H     LINE      ---       ---     ---   #1200
      C0142CH     LINE      ---       ---     ---   #1202
      C01448H     LINE      ---       ---     ---   #1204
      C01458H     LINE      ---       ---     ---   #1206
      C01480H     LINE      ---       ---     ---   #1208
      C0148AH     LINE      ---       ---     ---   #1209
      C0148CH     LINE      ---       ---     ---   #1212
      C014A4H     LINE      ---       ---     ---   #1213
      C014A4H     LINE      ---       ---     ---   #1215
      C014B4H     LINE      ---       ---     ---   #1218
      C014C4H     LINE      ---       ---     ---   #1220
      C014CEH     LINE      ---       ---     ---   #1221
      C014D2H     LINE      ---       ---     ---   #1222
      C014D2H     LINE      ---       ---     ---   #1223
      C014D4H     LINE      ---       ---     ---   #1224
      C014D4H     LINE      ---       ---     ---   #1226
      C014D6H     LINE      ---       ---     ---   #1228
      ---         BLOCKEND  LVL=0     ---     ---   

      C014D8H     BLOCK     LVL=0     009AH   ---   CAN_viSRN0
      C014DEH     BLOCK     LVL=1     0090H   ---   
      000005H     SYMBOL    REG       ---     ---   uwSRN0NodeHandler
      000005H     SYMBOL    REG       ---     ---   uwSRN0ObjHandler
      ---         BLOCKEND  LVL=1     ---     ---   
      C014D8H     LINE      ---       ---     ---   #1254
      C014DEH     LINE      ---       ---     ---   #1255
      C014DEH     LINE      ---       ---     ---   #1268
      C014E6H     LINE      ---       ---     ---   #1270
      C014EAH     LINE      ---       ---     ---   #1275
      C014F6H     LINE      ---       ---     ---   #1280
      C014F6H     LINE      ---       ---     ---   #1282
      C014FAH     LINE      ---       ---     ---   #1286
L166 LINKER/LOCATER V5.25                                                             07/13/2019  10:17:21  PAGE 34


      C01506H     LINE      ---       ---     ---   #1291
      C01506H     LINE      ---       ---     ---   #1294
      C01510H     LINE      ---       ---     ---   #1295
      C0151AH     LINE      ---       ---     ---   #1297
      C0151CH     LINE      ---       ---     ---   #1299
      C01526H     LINE      ---       ---     ---   #1301
      C01526H     LINE      ---       ---     ---   #1303
      C0152EH     LINE      ---       ---     ---   #1305
      C01532H     LINE      ---       ---     ---   #1308
      C0153CH     LINE      ---       ---     ---   #1311
      C0153CH     LINE      ---       ---     ---   #1317
      C0153CH     LINE      ---       ---     ---   #1327
      C0153CH     LINE      ---       ---     ---   #1335
      C0153CH     LINE      ---       ---     ---   #1337
      C0153CH     LINE      ---       ---     ---   #1339
      C01548H     LINE      ---       ---     ---   #1341
      C01548H     LINE      ---       ---     ---   #1344
      C01554H     LINE      ---       ---     ---   #1345
      C01560H     LINE      ---       ---     ---   #1351
      C01560H     LINE      ---       ---     ---   #1353
      C01560H     LINE      ---       ---     ---   #1359
      C01560H     LINE      ---       ---     ---   #1361
      C01560H     LINE      ---       ---     ---   #1367
      C0156EH     LINE      ---       ---     ---   #1374
      ---         BLOCKEND  LVL=0     ---     ---   
      C01576H     PUBLIC    LABEL     ---     ---   ?C_FPADD
      C015B4H     PUBLIC    LABEL     ---     ---   ?C_FPXSUB
      C01572H     PUBLIC    LABEL     ---     ---   ?C_FPSUB

      C01572H     BLOCK     LVL=0     00E8H   ---   ?C_FPSUB
      ---         BLOCKEND  LVL=0     ---     ---   
      C0165AH     PUBLIC    LABEL     ---     ---   ?C_FPMUL

      C0165AH     BLOCK     LVL=0     0094H   ---   ?C_FPMUL
      ---         BLOCKEND  LVL=0     ---     ---   
      C016EEH     PUBLIC    LABEL     ---     ---   ?C_CASTF

      C016EEH     BLOCK     LVL=0     005CH   ---   ?C_CASTF
      ---         BLOCKEND  LVL=0     ---     ---   
      C0174AH     PUBLIC    LABEL     ---     ---   ?C_FCAST

      C0174AH     BLOCK     LVL=0     0046H   ---   ?C_FCAST
      ---         BLOCKEND  LVL=0     ---     ---   
      C01790H     PUBLIC    LABEL     ---     ---   ?C_FPGETOPN
      C017B6H     PUBLIC    LABEL     ---     ---   ?C_FPNANRSL
      C017BEH     PUBLIC    LABEL     ---     ---   ?C_FPINFRSL
      C017E0H     PUBLIC    LABEL     ---     ---   ?C_FPNOERR
      C017D6H     PUBLIC    LABEL     ---     ---   ?C_FPRSLNR
      C017CAH     PUBLIC    LABEL     ---     ---   ?C_FPOPRSL
      C017EEH     PUBLIC    LABEL     ---     ---   ?C_FPZERRSL
      C017EEH     PUBLIC    LABEL     ---     ---   ?C_FPUNFRS

      C01790H     BLOCK     LVL=0     0026H   ---   ?C_FPGETOPN
      ---         BLOCKEND  LVL=0     ---     ---   

      C017B6H     BLOCK     LVL=0     0008H   ---   ?C_FPNANRSL
      ---         BLOCKEND  LVL=0     ---     ---   
L166 LINKER/LOCATER V5.25                                                             07/13/2019  10:17:21  PAGE 35



      C017BEH     BLOCK     LVL=0     000CH   ---   ?C_FPINFRSL
      ---         BLOCKEND  LVL=0     ---     ---   

      C017CAH     BLOCK     LVL=0     0022H   ---   ?C_FPOPRSL
      ---         BLOCKEND  LVL=0     ---     ---   

      C017ECH     BLOCK     LVL=0     0002H   ---   EXIT
      ---         BLOCKEND  LVL=0     ---     ---   

      C017EEH     BLOCK     LVL=0     0006H   ---   ?C_FPZERRSL
      ---         BLOCKEND  LVL=0     ---     ---   
      C00096H     PUBLIC    VAR       ---     ---   ?C_ENDINIT



FUNCTION REGISTER MASKS


FUNCTION . . . . . . . . . . . REG MASK
=======================================




*** WARNING L20: DATA TYPES DIFFERENT
    SYMBOL:  taskInit
    MODULE:  ..\bin\main.obj (MAIN)
   DEFINED:  ..\bin\task.obj (TASK)

*** WARNING L20: DATA TYPES DIFFERENT
    SYMBOL:  SCS_StartXtalOsc
    MODULE:  ..\bin\clk.obj (CLK)
   DEFINED:  ..\bin\SCS.obj (SCS)

*** WARNING L20: DATA TYPES DIFFERENT
    SYMBOL:  SCS_SwitchSystemClock
    MODULE:  ..\bin\clk.obj (CLK)
   DEFINED:  ..\bin\SCS.obj (SCS)

*** WARNING L20: DATA TYPES DIFFERENT
    SYMBOL:  SCS_SwitchToHighPrecBandgap
    MODULE:  ..\bin\clk.obj (CLK)
   DEFINED:  ..\bin\SCS.obj (SCS)

Program Size: data=2176(near=2176) const=195(near=21) code=7364
L166 RUN COMPLETE.  4 WARNING(S),  0 ERROR(S)
