L166 LINKER/LOCATER V5.25                                                               07/19/2019  21:28:00  PAGE 1


L166 LINKER/LOCATER V5.25, INVOKED BY:
C:\PROGRAM FILES\KEIL4INF\C166\BIN\L166.EXE ..\bin\main.obj, ..\bin\task.obj, ..\bin\ledCtrlPrj1.obj, ..\bin\led.obj, ..
>> \bin\canSrv.obj, ..\bin\ccu60.obj, ..\bin\clk.obj, ..\bin\pwm.obj, ..\bin\SCS.obj, ..\bin\START_V3.obj, ..\bin\io.obj
>> , ..\bin\can.obj TO ..\bin\ambientLight PRINT (.\ambientLight.m66) CLASSES (ICODE (0XC00000-0XC0FFFF), NCODE (0XC0000
>> 0-0XC0FFFF), FCONST (0XC00000-0XCBFFFF), HCONST (0XC00000-0XCBFFFF), XCONST (0XC00000-0XCBFFFF), NCONST (0XC04000-0XC
>> 07FFF), NDATA (0XE00000-0XE03FFF), NDATA0 (0XE00000-0XE03FFF), SDATA (0XC000-0XDFFF, 0XF600-0XFDFF), SDATA0 (0XC000-0
>> XDFFF, 0XF600-0XFDFF), IDATA (0XF600-0XFDFF), IDATA0 (0XF600-0XFDFF), FDATA (0XA000-0XDFFF, 0XE00000-0XE0FFFF), FDATA
>> 0 (0XA000-0XDFFF, 0XE00000-0XE0FFFF), HDATA (0XA000-0XDFFF, 0XE00000-0XE0FFFF), HDATA0 (0XA000-0XDFFF, 0XE00000-0XE0F
>> FFF), XDATA (0XA000-0XDFFF, 0XE00000-0XE0FFFF), XDATA0 (0XA000-0XDFFF, 0XE00000-0XE0FFFF)) CINITTAB (0XC00000-0XCBFFF
>> F)


CPU TYPE:     C167 or derivative
CPU MODE:     SEGMENTED
MEMORY MODEL: SMALL WITH FLOATING POINT ARITHMETIC


INPUT MODULES INCLUDED:
  ..\bin\main.obj (MAIN)
         COMMENT TYPE 128: C166 V7.00
  ..\bin\task.obj (TASK)
         COMMENT TYPE 128: C166 V7.00
  ..\bin\ledCtrlPrj1.obj (LEDCTRLPRJ1)
         COMMENT TYPE 128: C166 V7.00
  ..\bin\led.obj (LED)
         COMMENT TYPE 128: C166 V7.00
  ..\bin\canSrv.obj (CANSRV)
         COMMENT TYPE 128: C166 V7.00
  ..\bin\ccu60.obj (CCU60)
         COMMENT TYPE 128: C166 V7.00
  ..\bin\clk.obj (CLK)
         COMMENT TYPE 128: C166 V7.00
  ..\bin\pwm.obj (PWM)
         COMMENT TYPE 128: C166 V7.00
  ..\bin\SCS.obj (SCS)
         COMMENT TYPE 128: C166 V7.00
  ..\bin\START_V3.obj (?C_STARTUP)
         COMMENT TYPE 128: A166 V5.33
  ..\bin\io.obj (IO)
         COMMENT TYPE 128: C166 V7.00
  ..\bin\can.obj (CAN)
         COMMENT TYPE 128: C166 V7.00
  C:\PROGRAM FILES\KEIL4INF\C166\LIB\C167FPS.LIB (?C_FPADD)
         COMMENT TYPE 128: A166 V5.33
  C:\PROGRAM FILES\KEIL4INF\C166\LIB\C167FPS.LIB (?C_FPMUL)
         COMMENT TYPE 128: A166 V5.33
  C:\PROGRAM FILES\KEIL4INF\C166\LIB\C167FPS.LIB (?C_CASTF)
         COMMENT TYPE 128: A166 V5.33
  C:\PROGRAM FILES\KEIL4INF\C166\LIB\C167FPS.LIB (?C_FCAST)
         COMMENT TYPE 128: A166 V5.33
  C:\PROGRAM FILES\KEIL4INF\C166\LIB\C167FPS.LIB (?C_FPGETOPN)
         COMMENT TYPE 128: A166 V5.33
  C:\PROGRAM FILES\KEIL4INF\C166\LIB\C167S.LIB (?C_ENDINIT)
         COMMENT TYPE 128: A166 V5.33


INTERRUPT PROCEDURES OF MODULE:  ..\bin\ambientLight (MAIN)

L166 LINKER/LOCATER V5.25                                                             07/19/2019  21:28:00  PAGE 2



INTERRUPT PROCEDURE                 INT  INTERRUPT NAME
=======================================================
CCU60_viNodeI0                       48  ---  
?C_RESET                              0  RESET
CAN_viSRN0                           64  ---  


MEMORY MAP OF MODULE:  ..\bin\ambientLight (MAIN)


START     STOP      LENGTH    TYPE  RTYP  ALIGN  TGR  GRP  COMB  CLASS   SECTION NAME
=====================================================================================
00F600H   00F7FFH   000200H   DATA  REL   WORD   ---    4  PUBL  IDATA   ?C_SYSSTACK
00FC00H   00FC1FH   000020H   DATA  ---   BYTE   ---  ---  ---   *REG*   ?C_MAINREGISTERS
C00000H   C00003H   000004H   ---   ---   ---    ---  ---  ---   * INTVECTOR TABLE *
C00004H   C0009DH   00009AH   XDATA REL   WORD   ---  ---  GLOB  ---     ?C_INITSEC
C0009EH   C000B7H   00001AH   CONST ABS   WORD   ---  ---  PRIV  ---     ?C_CLRMEMSEC
C000C0H   C000C3H   000004H   ---   ---   ---    ---  ---  ---   * INTVECTOR TABLE *
C000C4H   C000F7H   000034H   CODE  REL   WORD   ---    1  PUBL  NCODE   ?PR?TASK
C00100H   C00103H   000004H   ---   ---   ---    ---  ---  ---   * INTVECTOR TABLE *
C00104H   C00395H   000292H   CODE  REL   WORD   ---  ---  PRIV  ICODE   ?C_STARTUP_CODE
C00396H   C00DE7H   000A52H   CODE  REL   WORD   ---    1  PUBL  NCODE   ?PR?LEDCTRLPRJ1
C00DE8H   C014BFH   0006D8H   CODE  REL   WORD   ---    1  PUBL  NCODE   ?PR?CAN
C014C0H   C01741H   000282H   CODE  REL   WORD   ---    1  PUBL  NCODE   ?C_LIB_CODE
C01742H   C0189BH   00015AH   CODE  REL   WORD   ---    1  PUBL  NCODE   ?PR?SCS
C0189CH   C0198DH   0000F2H   CODE  REL   WORD   ---    1  PUBL  NCODE   ?PR?LED
C0198EH   C01A6FH   0000E2H   CODE  REL   WORD   ---    1  PUBL  NCODE   ?PR?MAIN
C01A70H   C01B51H   0000E2H   CODE  REL   WORD   ---    1  PUBL  NCODE   ?PR?CCU60
C01B52H   C01C25H   0000D4H   CODE  REL   WORD   ---    1  PUBL  NCODE   ?PR?CLK
C01C26H   C01CC9H   0000A4H   CODE  REL   WORD   ---    1  PUBL  NCODE   ?PR?PWM
C01CCAH   C01CD5H   00000CH   CODE  REL   WORD   ---    1  PUBL  NCODE   ?PR?CANSRV
C01CD6H   C01CDFH   00000AH   CODE  REL   WORD   ---    1  PUBL  NCODE   ?PR?IO
C04000H   C04014H   000015H   DATA  REL   BYTE   ---    3  PUBL  NCONST  ?NC?LEDCTRLPRJ1
E00000H   E001FFH   000200H   DATA  REL   WORD   ---    2  PUBL  NDATA   ?C_USERSTACK
E00200H   E0021FH   000020H   DATA  REL   WORD   ---    2  PUBL  NDATA   ?C_USERSTACK1
E00220H   E0023FH   000020H   DATA  REL   WORD   ---    2  PUBL  NDATA   ?C_USERSTACK2
E00240H   E00614H   0003D5H   DATA  REL   WORD   ---    2  PUBL  NDATA0  ?ND0?LED
E00615H   E00615H   000001H   DATA  REL   BYTE   ---    2  PUBL  NDATA0  ?ND0?TASK
E00616H   E00684H   00006FH   DATA  REL   WORD   ---    2  PUBL  NDATA0  ?ND0?LEDCTRLPRJ1
E00686H   E0069FH   00001AH   DATA  REL   WORD   ---    2  PUBL  NDATA0  ?ND0?CCU60
E006A0H   E006B5H   000016H   DATA  REL   WORD   ---    2  PUBL  NDATA0  ?ND0?CAN
E006B6H   E006C9H   000014H   DATA  REL   WORD   ---    2  PUBL  NDATA0  ?ND0?PWM



GROUP LIST OF MODULE:  ..\bin\ambientLight (MAIN)


GROUP NAME                           TYPE  TGR  GRP  CLASS       SECTION NAME
=============================================================================
NCODE                                CODE  ---    1  NCODE       ?PR?MAIN
                                                     NCODE       ?PR?TASK
                                                     NCODE       ?PR?LEDCTRLPRJ1
                                                     NCODE       ?PR?LED
                                                     NCODE       ?PR?CANSRV
                                                     NCODE       ?PR?CCU60
L166 LINKER/LOCATER V5.25                                                             07/19/2019  21:28:00  PAGE 3


                                                     NCODE       ?PR?CLK
                                                     NCODE       ?PR?PWM
                                                     NCODE       ?PR?SCS
                                                     NCODE       ?PR?IO
                                                     NCODE       ?PR?CAN
                                                     NCODE       ?C_LIB_CODE

NDATA                                DATA  ---    2  NDATA0      ?ND0?TASK
                                                     NDATA0      ?ND0?LEDCTRLPRJ1
                                                     NDATA0      ?ND0?LED
                                                     NDATA0      ?ND0?CCU60
                                                     NDATA0      ?ND0?PWM
                                                     NDATA       ?C_USERSTACK
                                                     NDATA       ?C_USERSTACK1
                                                     NDATA       ?C_USERSTACK2
                                                     NDATA0      ?ND0?CAN

NCONST                               DATA  ---    3  NCONST      ?NC?LEDCTRLPRJ1

SDATA                                DATA  ---    4  IDATA       ?C_SYSSTACK




PUBLIC SYMBOLS OF MODULE:  ..\bin\ambientLight (MAIN)


      VALUE       PUBLIC SYMBOL NAME               REP   TGR  CLASS   SECTION
      =======================================================================
      C0163CH     ?C_CASTF                         LABEL ---  NCODE   ?C_LIB_CODE
      C0009EH     ?C_CLRMEMSECSTART                VAR   ---  ---     ---
      C0009CH     ?C_ENDINIT                       VAR   ---  ---     ?C_INITSEC
      C01698H     ?C_FCAST                         LABEL ---  NCODE   ?C_LIB_CODE
      C014C4H     ?C_FPADD                         LABEL ---  NCODE   ?C_LIB_CODE
      C016DEH     ?C_FPGETOPN                      LABEL ---  NCODE   ?C_LIB_CODE
      C0170CH     ?C_FPINFRSL                      LABEL ---  NCODE   ?C_LIB_CODE
      C015A8H     ?C_FPMUL                         LABEL ---  NCODE   ?C_LIB_CODE
      C01704H     ?C_FPNANRSL                      LABEL ---  NCODE   ?C_LIB_CODE
      C0172EH     ?C_FPNOERR                       LABEL ---  NCODE   ?C_LIB_CODE
      C01718H     ?C_FPOPRSL                       LABEL ---  NCODE   ?C_LIB_CODE
      C01724H     ?C_FPRSLNR                       LABEL ---  NCODE   ?C_LIB_CODE
      C014C0H     ?C_FPSUB                         LABEL ---  NCODE   ?C_LIB_CODE
      C0173CH     ?C_FPUNFRS                       LABEL ---  NCODE   ?C_LIB_CODE
      C01502H     ?C_FPXSUB                        LABEL ---  NCODE   ?C_LIB_CODE
      C0173CH     ?C_FPZERRSL                      LABEL ---  NCODE   ?C_LIB_CODE
      C00004H     ?C_INITSECSTART                  VAR   ---  ---     ---
      C00000H     ?C_NCONSTBASE                    CONST ---  ---     ---
      0000C0H     ?C_NCONSTBASESEG                 CONST ---  ---     ---
      DF8000H     ?C_NDATABASE                     CONST ---  ---     ---
      0000DFH     ?C_NDATABASESEG                  CONST ---  ---     ---
      000000H     ?C_PAGEDPP0                      CONST ---  ---     ---
      000301H     ?C_PAGEDPP1                      CONST ---  ---     ---
      000380H     ?C_PAGEDPP2                      CONST ---  ---     ---
      C00104H     ?C_STARTUP                       LABEL ---  ICODE   ?C_STARTUP_CODE
      00F600H     ?C_SYSSTKBOT                     VAR   ---  IDATA   ?C_SYSSTACK
      00F800H     ?C_SYSSTKTOP                     VAR   ---  IDATA   ?C_SYSSTACK
      E00000H     ?C_USRSTKBOT                     VAR   ---  NDATA   ?C_USERSTACK
L166 LINKER/LOCATER V5.25                                                             07/19/2019  21:28:00  PAGE 4


      000000H     ?L?VECSC                         CONST ---  ---     ---
      C012ACH     CAN_ubReadFIFO                   LABEL ---  NCODE   ?PR?CAN
      C0113CH     CAN_ubWriteFIFO                  LABEL ---  NCODE   ?PR?CAN
      C00F80H     CAN_vGetMsgObj                   LABEL ---  NCODE   ?PR?CAN
      C00DE8H     CAN_vInit                        LABEL ---  NCODE   ?PR?CAN
      C010D8H     CAN_vLoadData                    LABEL ---  NCODE   ?PR?CAN
      C010C4H     CAN_vTransmit                    LABEL ---  NCODE   ?PR?CAN
      C01426H     CAN_viSRN0                       LABEL ---  NCODE   ?PR?CAN
      C01A70H     CCU60_vInit                      LABEL ---  NCODE   ?PR?CCU60
      C01AF8H     CCU60_viNodeI0                   LABEL ---  NCODE   ?PR?CCU60
      C01768H     DisableVcoBypass                 LABEL ---  NCODE   ?PR?SCS
      C0175AH     EnableVcoBypass                  LABEL ---  NCODE   ?PR?SCS
      C01CD6H     IO_vInit                         LABEL ---  NCODE   ?PR?IO
      C01B52H     MAIN_vChangeFreq                 LABEL ---  NCODE   ?PR?CLK
      C01BB2H     MAIN_vLockProtecReg              LABEL ---  NCODE   ?PR?CLK
      C01B84H     MAIN_vUnlockProtecReg            LABEL ---  NCODE   ?PR?CLK
      000000H     RESET                            INTNO ---  ---     ---
      C01836H     SCS_CountClocksWithTimer         LABEL ---  NCODE   ?PR?SCS
      C01780H     SCS_StartXtalOsc                 LABEL ---  NCODE   ?PR?SCS
      C017A4H     SCS_SwitchSystemClock            LABEL ---  NCODE   ?PR?SCS
      C01830H     SCS_SwitchToHighPrecBandgap      LABEL ---  NCODE   ?PR?SCS
      C01742H     SetK2                            LABEL ---  NCODE   ?PR?SCS
      C01776H     WaitForTimer13Stop               LABEL ---  NCODE   ?PR?SCS
      C01CD0H     canUpdate                        LABEL ---  NCODE   ?PR?CANSRV
      E006B6H     ccuCntArr                        VAR   ---  NDATA0  ?ND0?PWM
      E0068AH     ccuCntArr2                       VAR   ---  NDATA0  ?ND0?CCU60
      E0069EH     centerCnt                        VAR   ---  NDATA0  ?ND0?CCU60
      E00660H     colorArr                         VAR   ---  NDATA0  ?ND0?LEDCTRLPRJ1
      C04000H     colorArrOrign                    VAR   ---  NCONST  ?NC?LEDCTRLPRJ1
      C01C02H     delay                            LABEL ---  NCODE   ?PR?CLK
      C01BFEH     delay300ns                       LABEL ---  NCODE   ?PR?CLK
      E00240H     ledDutyCycleArrary               VAR   ---  NDATA0  ?ND0?LED
      C0189CH     ledInit                          LABEL ---  NCODE   ?PR?LED
      C00D42H     ledModeTransitionUpdate          LABEL ---  NCODE   ?PR?LEDCTRLPRJ1
      C018CEH     ledRgbEncodeUpdate               LABEL ---  NCODE   ?PR?LED
      E005A0H     ledStrip_Obj                     VAR   ---  NDATA0  ?ND0?LED
      E00686H     leftCnt                          VAR   ---  NDATA0  ?ND0?CCU60
      C01C10H     longDelay                        LABEL ---  NCODE   ?PR?CLK
      C0198EH     main                             LABEL ---  NCODE   ?PR?MAIN
      E00615H     manualMode                       VAR   ---  NDATA0  ?ND0?TASK
      E006A0H     msgObj0x505                      VAR   ---  NDATA0  ?ND0?CAN
      E00688H     rightCnt                         VAR   ---  NDATA0  ?ND0?CCU60
      C01C26H     setPwmDutyCyc                    LABEL ---  NCODE   ?PR?PWM
      C0189EH     setSingleLed                     LABEL ---  NCODE   ?PR?LED
      C000F6H     taskFast                         LABEL ---  NCODE   ?PR?TASK
      C000C4H     taskInit                         LABEL ---  NCODE   ?PR?TASK
      C000DEH     taskSlow                         LABEL ---  NCODE   ?PR?TASK



SYMBOL TABLE OF MODULE:  ..\bin\ambientLight (MAIN)

      VALUE       TYPE      REP       LENGTH  TGR   SYMBOL NAME
      =========================================================
      C0198EH     GLOBAL    LABEL     ---     ---   main

      C0198EH     BLOCK     LVL=0     00E2H   ---   main
L166 LINKER/LOCATER V5.25                                                             07/19/2019  21:28:00  PAGE 5


      C0198EH     BLOCK     LVL=1     00E2H   ---   
      00000DH     SYMBOL    REG       ---     ---   i
      00004EH     SYMBOL    REG       ---     ---   ledZoneSwitch
      ---         BLOCKEND  LVL=1     ---     ---   
      C0198EH     LINE      ---       ---     ---   #4
      C0198EH     LINE      ---       ---     ---   #5
      C0198EH     LINE      ---       ---     ---   #6
      C01990H     LINE      ---       ---     ---   #7
      C01994H     LINE      ---       ---     ---   #8
      C01998H     LINE      ---       ---     ---   #12
      C01998H     LINE      ---       ---     ---   #14
      C019AAH     LINE      ---       ---     ---   #16
      C019AAH     LINE      ---       ---     ---   #17
      C019AEH     LINE      ---       ---     ---   #18
      C019B0H     LINE      ---       ---     ---   #19
      C019B8H     LINE      ---       ---     ---   #20
      C019BAH     LINE      ---       ---     ---   #21
      C019BAH     LINE      ---       ---     ---   #22
      C019C0H     LINE      ---       ---     ---   #24
      C019C2H     LINE      ---       ---     ---   #25
      C019C6H     LINE      ---       ---     ---   #26
      C019CAH     LINE      ---       ---     ---   #27
      C019CEH     LINE      ---       ---     ---   #28
      C019D0H     LINE      ---       ---     ---   #29
      C019D2H     LINE      ---       ---     ---   #32
      C019D4H     LINE      ---       ---     ---   #33
      C019D8H     LINE      ---       ---     ---   #34
      C019DAH     LINE      ---       ---     ---   #35
      C019DEH     LINE      ---       ---     ---   #36
      C019E2H     LINE      ---       ---     ---   #37
      C019E2H     LINE      ---       ---     ---   #38
      C019E2H     LINE      ---       ---     ---   #39
      C019E8H     LINE      ---       ---     ---   #41
      C019F0H     LINE      ---       ---     ---   #42
      C019F2H     LINE      ---       ---     ---   #43
      C019F4H     LINE      ---       ---     ---   #44
      C019F4H     LINE      ---       ---     ---   #45
      C019F6H     LINE      ---       ---     ---   #46
      C019F6H     LINE      ---       ---     ---   #47
      C019FCH     LINE      ---       ---     ---   #49
      C019FEH     LINE      ---       ---     ---   #50
      C01A02H     LINE      ---       ---     ---   #51
      C01A06H     LINE      ---       ---     ---   #52
      C01A0AH     LINE      ---       ---     ---   #53
      C01A0CH     LINE      ---       ---     ---   #54
      C01A0EH     LINE      ---       ---     ---   #57
      C01A10H     LINE      ---       ---     ---   #58
      C01A14H     LINE      ---       ---     ---   #59
      C01A16H     LINE      ---       ---     ---   #60
      C01A1AH     LINE      ---       ---     ---   #61
      C01A1EH     LINE      ---       ---     ---   #62
      C01A1EH     LINE      ---       ---     ---   #63
      C01A1EH     LINE      ---       ---     ---   #64
      C01A24H     LINE      ---       ---     ---   #66
      C01A2CH     LINE      ---       ---     ---   #67
      C01A2EH     LINE      ---       ---     ---   #68
      C01A30H     LINE      ---       ---     ---   #69
L166 LINKER/LOCATER V5.25                                                             07/19/2019  21:28:00  PAGE 6


      C01A30H     LINE      ---       ---     ---   #70
      C01A32H     LINE      ---       ---     ---   #71
      C01A32H     LINE      ---       ---     ---   #72
      C01A38H     LINE      ---       ---     ---   #74
      C01A3AH     LINE      ---       ---     ---   #75
      C01A3EH     LINE      ---       ---     ---   #76
      C01A42H     LINE      ---       ---     ---   #77
      C01A46H     LINE      ---       ---     ---   #78
      C01A48H     LINE      ---       ---     ---   #79
      C01A4AH     LINE      ---       ---     ---   #82
      C01A4CH     LINE      ---       ---     ---   #83
      C01A50H     LINE      ---       ---     ---   #84
      C01A52H     LINE      ---       ---     ---   #85
      C01A56H     LINE      ---       ---     ---   #86
      C01A5AH     LINE      ---       ---     ---   #87
      C01A5AH     LINE      ---       ---     ---   #88
      C01A5AH     LINE      ---       ---     ---   #89
      C01A60H     LINE      ---       ---     ---   #91
      C01A68H     LINE      ---       ---     ---   #92
      C01A6AH     LINE      ---       ---     ---   #93
      C01A6EH     LINE      ---       ---     ---   #94
      C01A6EH     LINE      ---       ---     ---   #95
      C01A70H     LINE      ---       ---     ---   #96
      C01A70H     LINE      ---       ---     ---   #100
      ---         BLOCKEND  LVL=0     ---     ---   
      C000DEH     PUBLIC    LABEL     ---     ---   taskSlow
      C000C4H     PUBLIC    LABEL     ---     ---   taskInit
      C000F6H     PUBLIC    LABEL     ---     ---   taskFast
      C000C3H     SYMBOL    LABEL     ---     ---   testFun
      E00615H     PUBLIC    VAR       ---     ---   manualMode

      C000C4H     BLOCK     LVL=0     001AH   ---   taskInit
      C000C4H     LINE      ---       ---     ---   #32
      C000C4H     LINE      ---       ---     ---   #36
      C000C6H     LINE      ---       ---     ---   #50
      C000CAH     LINE      ---       ---     ---   #52
      C000CEH     LINE      ---       ---     ---   #63
      C000D2H     LINE      ---       ---     ---   #65
      C000D6H     LINE      ---       ---     ---   #72
      C000DAH     LINE      ---       ---     ---   #80
      C000DCH     LINE      ---       ---     ---   #81
      ---         BLOCKEND  LVL=0     ---     ---   

      C000DEH     BLOCK     LVL=0     0018H   ---   taskSlow
      C000E0H     BLOCK     LVL=1     0012H   ---   
      000000H     SYMBOL    AUTO      ---     ---   canSigObj
      ---         BLOCKEND  LVL=1     ---     ---   
      C000DEH     LINE      ---       ---     ---   #94
      C000E0H     LINE      ---       ---     ---   #95
      C000E0H     LINE      ---       ---     ---   #103
      C000E6H     LINE      ---       ---     ---   #106
      C000ECH     LINE      ---       ---     ---   #109
      C000F2H     LINE      ---       ---     ---   #112
      ---         BLOCKEND  LVL=0     ---     ---   

      C000F6H     BLOCK     LVL=0     0002H   ---   taskFast
      C000F6H     LINE      ---       ---     ---   #118
L166 LINKER/LOCATER V5.25                                                             07/19/2019  21:28:00  PAGE 7


      C000F6H     LINE      ---       ---     ---   #123
      ---         BLOCKEND  LVL=0     ---     ---   
      C00D42H     PUBLIC    LABEL     ---     ---   ledModeTransitionUpdate
      C00CA8H     SYMBOL    LABEL     ---     ---   ledMode13Ctrl
      C00C02H     SYMBOL    LABEL     ---     ---   ledMode12Ctrl
      C00B52H     SYMBOL    LABEL     ---     ---   ledMode11Ctrl
      C00AA2H     SYMBOL    LABEL     ---     ---   ledMode10Ctrl
      C00A14H     SYMBOL    LABEL     ---     ---   ledMode9Ctrl
      C0098EH     SYMBOL    LABEL     ---     ---   ledMode8Ctrl
      C008DEH     SYMBOL    LABEL     ---     ---   ledMode7Ctrl
      C008AEH     SYMBOL    LABEL     ---     ---   ledMode6Ctrl
      C00654H     SYMBOL    LABEL     ---     ---   ledMode5Ctrl
      C005BAH     SYMBOL    LABEL     ---     ---   ledMode4Ctrl
      C0050AH     SYMBOL    LABEL     ---     ---   ledMode3Ctrl
      C004DAH     SYMBOL    LABEL     ---     ---   ledMode2Ctrl
      C00396H     SYMBOL    LABEL     ---     ---   ledMode1Ctrl
      C04000H     PUBLIC    VAR       ---     ---   colorArrOrign
      E00660H     PUBLIC    VAR       ---     ---   colorArr

      C00396H     BLOCK     LVL=0     0144H   ---   ledMode1Ctrl
      000008H     SYMBOL    REG       ---     ---   oldInpMode
      C00398H     BLOCK     LVL=1     013EH   ---   
      E00684H     SYMBOL    VAR       ---     ---   darknessLevel
      00004BH     SYMBOL    REG       ---     ---   j
      ---         BLOCKEND  LVL=1     ---     ---   
      C00396H     LINE      ---       ---     ---   #36
      C00398H     LINE      ---       ---     ---   #37
      C00398H     LINE      ---       ---     ---   #39
      C0039AH     LINE      ---       ---     ---   #40
      C003A0H     LINE      ---       ---     ---   #43
      C003A4H     LINE      ---       ---     ---   #44
      C003ACH     LINE      ---       ---     ---   #46
      C003B0H     LINE      ---       ---     ---   #47
      C003B0H     LINE      ---       ---     ---   #51
      C003B0H     LINE      ---       ---     ---   #52
      C003B2H     LINE      ---       ---     ---   #54
      C00410H     LINE      ---       ---     ---   #55
      C0046EH     LINE      ---       ---     ---   #56
      C004CCH     LINE      ---       ---     ---   #57
      C004D6H     LINE      ---       ---     ---   #58
      ---         BLOCKEND  LVL=0     ---     ---   

      C004DAH     BLOCK     LVL=0     0030H   ---   ledMode2Ctrl
      C004DCH     BLOCK     LVL=1     002AH   ---   
      00004DH     SYMBOL    REG       ---     ---   i
      ---         BLOCKEND  LVL=1     ---     ---   
      C004DAH     LINE      ---       ---     ---   #61
      C004DCH     LINE      ---       ---     ---   #62
      C004DCH     LINE      ---       ---     ---   #63
      C004DEH     LINE      ---       ---     ---   #64
      C004DEH     LINE      ---       ---     ---   #66
      C004FCH     LINE      ---       ---     ---   #67
      C00506H     LINE      ---       ---     ---   #68
      ---         BLOCKEND  LVL=0     ---     ---   

      C0050AH     BLOCK     LVL=0     00B0H   ---   ledMode3Ctrl
      C0050CH     BLOCK     LVL=1     00AAH   ---   
L166 LINKER/LOCATER V5.25                                                             07/19/2019  21:28:00  PAGE 8


      E00683H     SYMBOL    VAR       ---     ---   i
      00004DH     SYMBOL    REG       ---     ---   j
      ---         BLOCKEND  LVL=1     ---     ---   
      C0050AH     LINE      ---       ---     ---   #70
      C0050CH     LINE      ---       ---     ---   #71
      C0050CH     LINE      ---       ---     ---   #73
      C0050EH     LINE      ---       ---     ---   #75
      C0054AH     LINE      ---       ---     ---   #78
      C0054AH     LINE      ---       ---     ---   #79
      C0054AH     LINE      ---       ---     ---   #80
      C0054AH     LINE      ---       ---     ---   #81
      C0054AH     LINE      ---       ---     ---   #82
      C0054AH     LINE      ---       ---     ---   #83
      C0054CH     LINE      ---       ---     ---   #85
      C0056AH     LINE      ---       ---     ---   #86
      C00574H     LINE      ---       ---     ---   #87
      C00578H     LINE      ---       ---     ---   #88
      C0057AH     LINE      ---       ---     ---   #90
      C0057AH     LINE      ---       ---     ---   #91
      C0057AH     LINE      ---       ---     ---   #92
      C0057AH     LINE      ---       ---     ---   #93
      C0057AH     LINE      ---       ---     ---   #94
      C0057AH     LINE      ---       ---     ---   #95
      C0057CH     LINE      ---       ---     ---   #97
      C0059AH     LINE      ---       ---     ---   #98
      C005A4H     LINE      ---       ---     ---   #99
      C005A8H     LINE      ---       ---     ---   #100
      C005B2H     LINE      ---       ---     ---   #101
      C005B6H     LINE      ---       ---     ---   #102
      C005B6H     LINE      ---       ---     ---   #103
      C005B6H     LINE      ---       ---     ---   #104
      C005B6H     LINE      ---       ---     ---   #105
      C005B6H     LINE      ---       ---     ---   #106
      ---         BLOCKEND  LVL=0     ---     ---   

      C005BAH     BLOCK     LVL=0     009AH   ---   ledMode4Ctrl
      000008H     SYMBOL    REG       ---     ---   oldInpMode
      C005BCH     BLOCK     LVL=1     0094H   ---   
      E00682H     SYMBOL    VAR       ---     ---   i
      E00681H     SYMBOL    VAR       ---     ---   k
      00004DH     SYMBOL    REG       ---     ---   j
      ---         BLOCKEND  LVL=1     ---     ---   
      C005BAH     LINE      ---       ---     ---   #108
      C005BCH     LINE      ---       ---     ---   #109
      C005BCH     LINE      ---       ---     ---   #111
      C005BEH     LINE      ---       ---     ---   #113
      C005C2H     LINE      ---       ---     ---   #115
      C005C6H     LINE      ---       ---     ---   #116
      C005CAH     LINE      ---       ---     ---   #117
      C005CAH     LINE      ---       ---     ---   #120
      C005CAH     LINE      ---       ---     ---   #122
      C005CEH     LINE      ---       ---     ---   #123
      C005D8H     LINE      ---       ---     ---   #125
      C005DCH     LINE      ---       ---     ---   #126
      C005E4H     LINE      ---       ---     ---   #128
      C005E8H     LINE      ---       ---     ---   #129
      C005E8H     LINE      ---       ---     ---   #133
L166 LINKER/LOCATER V5.25                                                             07/19/2019  21:28:00  PAGE 9


      C005E8H     LINE      ---       ---     ---   #134
      C005EAH     LINE      ---       ---     ---   #136
      C00608H     LINE      ---       ---     ---   #138
      C00626H     LINE      ---       ---     ---   #139
      C00628H     LINE      ---       ---     ---   #142
      C00646H     LINE      ---       ---     ---   #143
      C00646H     LINE      ---       ---     ---   #144
      C00650H     LINE      ---       ---     ---   #145
      ---         BLOCKEND  LVL=0     ---     ---   

      C00654H     BLOCK     LVL=0     025AH   ---   ledMode5Ctrl
      000008H     SYMBOL    REG       ---     ---   oldInpMode
      C00658H     BLOCK     LVL=1     0250H   ---   
      E00680H     SYMBOL    VAR       ---     ---   cycCnt
      E00618H     SYMBOL    VAR       ---     ---   streamColorArr
      000000H     SYMBOL    AUTO      ---     ---   colorTemp
      000082H     SYMBOL    REG       ---     ---   i
      00004DH     SYMBOL    REG       ---     ---   j
      ---         BLOCKEND  LVL=1     ---     ---   
      C00654H     LINE      ---       ---     ---   #147
      C00658H     LINE      ---       ---     ---   #148
      C00658H     LINE      ---       ---     ---   #152
      C0065CH     LINE      ---       ---     ---   #154
      C00662H     LINE      ---       ---     ---   #156
      C00666H     LINE      ---       ---     ---   #157
      C00678H     LINE      ---       ---     ---   #158
      C0068AH     LINE      ---       ---     ---   #159
      C0069CH     LINE      ---       ---     ---   #160
      C006AEH     LINE      ---       ---     ---   #162
      C006C0H     LINE      ---       ---     ---   #163
      C006D2H     LINE      ---       ---     ---   #164
      C006E4H     LINE      ---       ---     ---   #165
      C006F6H     LINE      ---       ---     ---   #167
      C00708H     LINE      ---       ---     ---   #168
      C0071AH     LINE      ---       ---     ---   #169
      C0072CH     LINE      ---       ---     ---   #170
      C0073EH     LINE      ---       ---     ---   #172
      C00750H     LINE      ---       ---     ---   #173
      C00762H     LINE      ---       ---     ---   #174
      C00774H     LINE      ---       ---     ---   #175
      C00786H     LINE      ---       ---     ---   #177
      C00798H     LINE      ---       ---     ---   #178
      C007AAH     LINE      ---       ---     ---   #179
      C007BCH     LINE      ---       ---     ---   #180
      C007CEH     LINE      ---       ---     ---   #182
      C007E0H     LINE      ---       ---     ---   #183
      C007F2H     LINE      ---       ---     ---   #184
      C00804H     LINE      ---       ---     ---   #185
      C00816H     LINE      ---       ---     ---   #186
      C00816H     LINE      ---       ---     ---   #187
      C0081AH     LINE      ---       ---     ---   #189
      C00822H     LINE      ---       ---     ---   #191
      C00826H     LINE      ---       ---     ---   #193
      C00836H     LINE      ---       ---     ---   #194
      C00838H     LINE      ---       ---     ---   #196
      C0085AH     LINE      ---       ---     ---   #197
      C00862H     LINE      ---       ---     ---   #198
L166 LINKER/LOCATER V5.25                                                             07/19/2019  21:28:00  PAGE 10


      C00872H     LINE      ---       ---     ---   #199
      C00872H     LINE      ---       ---     ---   #202
      C00874H     LINE      ---       ---     ---   #204
      C0089EH     LINE      ---       ---     ---   #205
      C008A8H     LINE      ---       ---     ---   #206
      ---         BLOCKEND  LVL=0     ---     ---   

      C008AEH     BLOCK     LVL=0     0030H   ---   ledMode6Ctrl
      C008B0H     BLOCK     LVL=1     002AH   ---   
      00004DH     SYMBOL    REG       ---     ---   i
      ---         BLOCKEND  LVL=1     ---     ---   
      C008AEH     LINE      ---       ---     ---   #208
      C008B0H     LINE      ---       ---     ---   #209
      C008B0H     LINE      ---       ---     ---   #210
      C008B2H     LINE      ---       ---     ---   #211
      C008B2H     LINE      ---       ---     ---   #213
      C008D0H     LINE      ---       ---     ---   #214
      C008DAH     LINE      ---       ---     ---   #215
      ---         BLOCKEND  LVL=0     ---     ---   

      C008DEH     BLOCK     LVL=0     00B0H   ---   ledMode7Ctrl
      C008E0H     BLOCK     LVL=1     00AAH   ---   
      E0067FH     SYMBOL    VAR       ---     ---   i
      00004DH     SYMBOL    REG       ---     ---   j
      ---         BLOCKEND  LVL=1     ---     ---   
      C008DEH     LINE      ---       ---     ---   #217
      C008E0H     LINE      ---       ---     ---   #218
      C008E0H     LINE      ---       ---     ---   #220
      C008E2H     LINE      ---       ---     ---   #222
      C0091EH     LINE      ---       ---     ---   #225
      C0091EH     LINE      ---       ---     ---   #226
      C0091EH     LINE      ---       ---     ---   #227
      C0091EH     LINE      ---       ---     ---   #228
      C0091EH     LINE      ---       ---     ---   #229
      C0091EH     LINE      ---       ---     ---   #230
      C00920H     LINE      ---       ---     ---   #232
      C0093EH     LINE      ---       ---     ---   #233
      C00948H     LINE      ---       ---     ---   #234
      C0094CH     LINE      ---       ---     ---   #235
      C0094EH     LINE      ---       ---     ---   #237
      C0094EH     LINE      ---       ---     ---   #238
      C0094EH     LINE      ---       ---     ---   #239
      C0094EH     LINE      ---       ---     ---   #240
      C0094EH     LINE      ---       ---     ---   #241
      C0094EH     LINE      ---       ---     ---   #242
      C00950H     LINE      ---       ---     ---   #244
      C0096EH     LINE      ---       ---     ---   #245
      C00978H     LINE      ---       ---     ---   #246
      C0097CH     LINE      ---       ---     ---   #247
      C00986H     LINE      ---       ---     ---   #248
      C0098AH     LINE      ---       ---     ---   #249
      C0098AH     LINE      ---       ---     ---   #250
      C0098AH     LINE      ---       ---     ---   #251
      C0098AH     LINE      ---       ---     ---   #252
      C0098AH     LINE      ---       ---     ---   #253
      ---         BLOCKEND  LVL=0     ---     ---   

L166 LINKER/LOCATER V5.25                                                             07/19/2019  21:28:00  PAGE 11


      C0098EH     BLOCK     LVL=0     0086H   ---   ledMode8Ctrl
      000008H     SYMBOL    REG       ---     ---   oldInpMode
      C00990H     BLOCK     LVL=1     0080H   ---   
      E0067EH     SYMBOL    VAR       ---     ---   i
      E0067DH     SYMBOL    VAR       ---     ---   ledOnNum
      00004DH     SYMBOL    REG       ---     ---   j
      ---         BLOCKEND  LVL=1     ---     ---   
      C0098EH     LINE      ---       ---     ---   #255
      C00990H     LINE      ---       ---     ---   #256
      C00990H     LINE      ---       ---     ---   #258
      C00992H     LINE      ---       ---     ---   #260
      C00998H     LINE      ---       ---     ---   #262
      C0099CH     LINE      ---       ---     ---   #263
      C009A0H     LINE      ---       ---     ---   #264
      C009A0H     LINE      ---       ---     ---   #266
      C009A4H     LINE      ---       ---     ---   #267
      C009AEH     LINE      ---       ---     ---   #269
      C009B2H     LINE      ---       ---     ---   #270
      C009BAH     LINE      ---       ---     ---   #272
      C009BEH     LINE      ---       ---     ---   #273
      C009BEH     LINE      ---       ---     ---   #277
      C009BEH     LINE      ---       ---     ---   #278
      C009BEH     LINE      ---       ---     ---   #282
      C009BEH     LINE      ---       ---     ---   #284
      C009C0H     LINE      ---       ---     ---   #286
      C009C8H     LINE      ---       ---     ---   #288
      C009E6H     LINE      ---       ---     ---   #289
      C009E8H     LINE      ---       ---     ---   #292
      C00A06H     LINE      ---       ---     ---   #293
      C00A06H     LINE      ---       ---     ---   #294
      C00A10H     LINE      ---       ---     ---   #296
      ---         BLOCKEND  LVL=0     ---     ---   

      C00A14H     BLOCK     LVL=0     008EH   ---   ledMode9Ctrl
      000008H     SYMBOL    REG       ---     ---   oldInpMode
      C00A16H     BLOCK     LVL=1     0088H   ---   
      E0067CH     SYMBOL    VAR       ---     ---   i
      E0067BH     SYMBOL    VAR       ---     ---   ledOnNum
      00004DH     SYMBOL    REG       ---     ---   j
      ---         BLOCKEND  LVL=1     ---     ---   
      C00A14H     LINE      ---       ---     ---   #298
      C00A16H     LINE      ---       ---     ---   #299
      C00A16H     LINE      ---       ---     ---   #301
      C00A18H     LINE      ---       ---     ---   #303
      C00A1EH     LINE      ---       ---     ---   #305
      C00A22H     LINE      ---       ---     ---   #306
      C00A26H     LINE      ---       ---     ---   #307
      C00A26H     LINE      ---       ---     ---   #311
      C00A26H     LINE      ---       ---     ---   #313
      C00A2AH     LINE      ---       ---     ---   #314
      C00A34H     LINE      ---       ---     ---   #316
      C00A38H     LINE      ---       ---     ---   #317
      C00A40H     LINE      ---       ---     ---   #319
      C00A44H     LINE      ---       ---     ---   #320
      C00A44H     LINE      ---       ---     ---   #324
      C00A44H     LINE      ---       ---     ---   #325
      C00A44H     LINE      ---       ---     ---   #329
L166 LINKER/LOCATER V5.25                                                             07/19/2019  21:28:00  PAGE 12


      C00A44H     LINE      ---       ---     ---   #331
      C00A46H     LINE      ---       ---     ---   #333
      C00A56H     LINE      ---       ---     ---   #335
      C00A74H     LINE      ---       ---     ---   #336
      C00A76H     LINE      ---       ---     ---   #339
      C00A94H     LINE      ---       ---     ---   #340
      C00A94H     LINE      ---       ---     ---   #341
      C00A9EH     LINE      ---       ---     ---   #342
      ---         BLOCKEND  LVL=0     ---     ---   

      C00AA2H     BLOCK     LVL=0     00B0H   ---   ledMode10Ctrl
      C00AA4H     BLOCK     LVL=1     00AAH   ---   
      E0067AH     SYMBOL    VAR       ---     ---   i
      00004DH     SYMBOL    REG       ---     ---   j
      ---         BLOCKEND  LVL=1     ---     ---   
      C00AA2H     LINE      ---       ---     ---   #344
      C00AA4H     LINE      ---       ---     ---   #345
      C00AA4H     LINE      ---       ---     ---   #347
      C00AA6H     LINE      ---       ---     ---   #349
      C00AE2H     LINE      ---       ---     ---   #352
      C00AE2H     LINE      ---       ---     ---   #353
      C00AE2H     LINE      ---       ---     ---   #354
      C00AE2H     LINE      ---       ---     ---   #355
      C00AE2H     LINE      ---       ---     ---   #356
      C00AE2H     LINE      ---       ---     ---   #357
      C00AE4H     LINE      ---       ---     ---   #359
      C00B02H     LINE      ---       ---     ---   #360
      C00B0CH     LINE      ---       ---     ---   #361
      C00B10H     LINE      ---       ---     ---   #362
      C00B12H     LINE      ---       ---     ---   #364
      C00B12H     LINE      ---       ---     ---   #365
      C00B12H     LINE      ---       ---     ---   #366
      C00B12H     LINE      ---       ---     ---   #367
      C00B12H     LINE      ---       ---     ---   #368
      C00B12H     LINE      ---       ---     ---   #369
      C00B14H     LINE      ---       ---     ---   #371
      C00B32H     LINE      ---       ---     ---   #372
      C00B3CH     LINE      ---       ---     ---   #373
      C00B40H     LINE      ---       ---     ---   #374
      C00B4AH     LINE      ---       ---     ---   #375
      C00B4EH     LINE      ---       ---     ---   #376
      C00B4EH     LINE      ---       ---     ---   #377
      C00B4EH     LINE      ---       ---     ---   #378
      C00B4EH     LINE      ---       ---     ---   #379
      C00B4EH     LINE      ---       ---     ---   #380
      ---         BLOCKEND  LVL=0     ---     ---   

      C00B52H     BLOCK     LVL=0     00B0H   ---   ledMode11Ctrl
      C00B54H     BLOCK     LVL=1     00AAH   ---   
      E00679H     SYMBOL    VAR       ---     ---   i
      00004DH     SYMBOL    REG       ---     ---   j
      ---         BLOCKEND  LVL=1     ---     ---   
      C00B52H     LINE      ---       ---     ---   #382
      C00B54H     LINE      ---       ---     ---   #383
      C00B54H     LINE      ---       ---     ---   #385
      C00B56H     LINE      ---       ---     ---   #387
      C00B92H     LINE      ---       ---     ---   #390
L166 LINKER/LOCATER V5.25                                                             07/19/2019  21:28:00  PAGE 13


      C00B92H     LINE      ---       ---     ---   #391
      C00B92H     LINE      ---       ---     ---   #392
      C00B92H     LINE      ---       ---     ---   #393
      C00B92H     LINE      ---       ---     ---   #394
      C00B92H     LINE      ---       ---     ---   #395
      C00B94H     LINE      ---       ---     ---   #397
      C00BB2H     LINE      ---       ---     ---   #398
      C00BBCH     LINE      ---       ---     ---   #399
      C00BC0H     LINE      ---       ---     ---   #400
      C00BC2H     LINE      ---       ---     ---   #402
      C00BC2H     LINE      ---       ---     ---   #403
      C00BC2H     LINE      ---       ---     ---   #404
      C00BC2H     LINE      ---       ---     ---   #405
      C00BC2H     LINE      ---       ---     ---   #406
      C00BC2H     LINE      ---       ---     ---   #407
      C00BC4H     LINE      ---       ---     ---   #409
      C00BE2H     LINE      ---       ---     ---   #410
      C00BECH     LINE      ---       ---     ---   #411
      C00BF0H     LINE      ---       ---     ---   #412
      C00BFAH     LINE      ---       ---     ---   #413
      C00BFEH     LINE      ---       ---     ---   #414
      C00BFEH     LINE      ---       ---     ---   #415
      C00BFEH     LINE      ---       ---     ---   #416
      C00BFEH     LINE      ---       ---     ---   #417
      C00BFEH     LINE      ---       ---     ---   #418
      ---         BLOCKEND  LVL=0     ---     ---   

      C00C02H     BLOCK     LVL=0     00A6H   ---   ledMode12Ctrl
      000008H     SYMBOL    REG       ---     ---   oldInpMode
      C00C04H     BLOCK     LVL=1     00A0H   ---   
      E00678H     SYMBOL    VAR       ---     ---   i
      E00677H     SYMBOL    VAR       ---     ---   ledOnNum
      00004DH     SYMBOL    REG       ---     ---   j
      ---         BLOCKEND  LVL=1     ---     ---   
      C00C02H     LINE      ---       ---     ---   #420
      C00C04H     LINE      ---       ---     ---   #421
      C00C04H     LINE      ---       ---     ---   #423
      C00C06H     LINE      ---       ---     ---   #425
      C00C0CH     LINE      ---       ---     ---   #427
      C00C10H     LINE      ---       ---     ---   #428
      C00C16H     LINE      ---       ---     ---   #429
      C00C16H     LINE      ---       ---     ---   #431
      C00C1AH     LINE      ---       ---     ---   #432
      C00C22H     LINE      ---       ---     ---   #434
      C00C26H     LINE      ---       ---     ---   #435
      C00C2EH     LINE      ---       ---     ---   #437
      C00C32H     LINE      ---       ---     ---   #438
      C00C34H     LINE      ---       ---     ---   #441
      C00C3AH     LINE      ---       ---     ---   #442
      C00C3AH     LINE      ---       ---     ---   #443
      C00C3AH     LINE      ---       ---     ---   #447
      C00C3AH     LINE      ---       ---     ---   #449
      C00C3CH     LINE      ---       ---     ---   #451
      C00C5CH     LINE      ---       ---     ---   #453
      C00C7AH     LINE      ---       ---     ---   #454
      C00C7CH     LINE      ---       ---     ---   #457
      C00C9AH     LINE      ---       ---     ---   #458
L166 LINKER/LOCATER V5.25                                                             07/19/2019  21:28:00  PAGE 14


      C00C9AH     LINE      ---       ---     ---   #459
      C00CA4H     LINE      ---       ---     ---   #460
      ---         BLOCKEND  LVL=0     ---     ---   

      C00CA8H     BLOCK     LVL=0     009AH   ---   ledMode13Ctrl
      000008H     SYMBOL    REG       ---     ---   oldInpMode
      C00CAAH     BLOCK     LVL=1     0094H   ---   
      E00676H     SYMBOL    VAR       ---     ---   i
      E00675H     SYMBOL    VAR       ---     ---   ledOnNum
      00004DH     SYMBOL    REG       ---     ---   j
      ---         BLOCKEND  LVL=1     ---     ---   
      C00CA8H     LINE      ---       ---     ---   #462
      C00CAAH     LINE      ---       ---     ---   #463
      C00CAAH     LINE      ---       ---     ---   #465
      C00CACH     LINE      ---       ---     ---   #467
      C00CB2H     LINE      ---       ---     ---   #469
      C00CB6H     LINE      ---       ---     ---   #470
      C00CBCH     LINE      ---       ---     ---   #471
      C00CBCH     LINE      ---       ---     ---   #473
      C00CC0H     LINE      ---       ---     ---   #474
      C00CC8H     LINE      ---       ---     ---   #476
      C00CCCH     LINE      ---       ---     ---   #477
      C00CD4H     LINE      ---       ---     ---   #479
      C00CD8H     LINE      ---       ---     ---   #480
      C00CDAH     LINE      ---       ---     ---   #483
      C00CE0H     LINE      ---       ---     ---   #484
      C00CE0H     LINE      ---       ---     ---   #485
      C00CE0H     LINE      ---       ---     ---   #489
      C00CE0H     LINE      ---       ---     ---   #491
      C00CE2H     LINE      ---       ---     ---   #493
      C00CF6H     LINE      ---       ---     ---   #495
      C00D14H     LINE      ---       ---     ---   #496
      C00D16H     LINE      ---       ---     ---   #499
      C00D34H     LINE      ---       ---     ---   #500
      C00D34H     LINE      ---       ---     ---   #501
      C00D3EH     LINE      ---       ---     ---   #503
      ---         BLOCKEND  LVL=0     ---     ---   

      C00D42H     BLOCK     LVL=0     00A6H   ---   ledModeTransitionUpdate
      00000DH     SYMBOL    REG       ---     ---   canSigObj
      C00D46H     BLOCK     LVL=1     009EH   ---   
      E00616H     SYMBOL    VAR       ---     ---   oldUserInpMode
      ---         BLOCKEND  LVL=1     ---     ---   
      C00D42H     LINE      ---       ---     ---   #505
      C00D46H     LINE      ---       ---     ---   #506
      C00D46H     LINE      ---       ---     ---   #508
      C00D74H     LINE      ---       ---     ---   #510
      C00D74H     LINE      ---       ---     ---   #511
      C00D7CH     LINE      ---       ---     ---   #512
      C00D7EH     LINE      ---       ---     ---   #513
      C00D7EH     LINE      ---       ---     ---   #514
      C00D82H     LINE      ---       ---     ---   #515
      C00D84H     LINE      ---       ---     ---   #516
      C00D84H     LINE      ---       ---     ---   #517
      C00D88H     LINE      ---       ---     ---   #518
      C00D8AH     LINE      ---       ---     ---   #519
      C00D8AH     LINE      ---       ---     ---   #520
L166 LINKER/LOCATER V5.25                                                             07/19/2019  21:28:00  PAGE 15


      C00D92H     LINE      ---       ---     ---   #521
      C00D94H     LINE      ---       ---     ---   #522
      C00D94H     LINE      ---       ---     ---   #523
      C00D9CH     LINE      ---       ---     ---   #524
      C00D9EH     LINE      ---       ---     ---   #525
      C00D9EH     LINE      ---       ---     ---   #526
      C00DA2H     LINE      ---       ---     ---   #527
      C00DA4H     LINE      ---       ---     ---   #528
      C00DA4H     LINE      ---       ---     ---   #529
      C00DA8H     LINE      ---       ---     ---   #530
      C00DAAH     LINE      ---       ---     ---   #531
      C00DAAH     LINE      ---       ---     ---   #532
      C00DB2H     LINE      ---       ---     ---   #533
      C00DB4H     LINE      ---       ---     ---   #534
      C00DB4H     LINE      ---       ---     ---   #535
      C00DBCH     LINE      ---       ---     ---   #536
      C00DBEH     LINE      ---       ---     ---   #537
      C00DBEH     LINE      ---       ---     ---   #538
      C00DC2H     LINE      ---       ---     ---   #539
      C00DC4H     LINE      ---       ---     ---   #540
      C00DC4H     LINE      ---       ---     ---   #541
      C00DC8H     LINE      ---       ---     ---   #542
      C00DCAH     LINE      ---       ---     ---   #543
      C00DCAH     LINE      ---       ---     ---   #544
      C00DD2H     LINE      ---       ---     ---   #545
      C00DD4H     LINE      ---       ---     ---   #546
      C00DD4H     LINE      ---       ---     ---   #547
      C00DDCH     LINE      ---       ---     ---   #548
      C00DDCH     LINE      ---       ---     ---   #549
      C00DDCH     LINE      ---       ---     ---   #551
      C00DDCH     LINE      ---       ---     ---   #552
      C00DDCH     LINE      ---       ---     ---   #553
      C00DE4H     LINE      ---       ---     ---   #554
      ---         BLOCKEND  LVL=0     ---     ---   
      C0189CH     PUBLIC    LABEL     ---     ---   ledInit
      C0189EH     PUBLIC    LABEL     ---     ---   setSingleLed
      C018CEH     PUBLIC    LABEL     ---     ---   ledRgbEncodeUpdate
      E00240H     PUBLIC    VAR       ---     ---   ledDutyCycleArrary
      E005A0H     PUBLIC    VAR       ---     ---   ledStrip_Obj

      C0189CH     BLOCK     LVL=0     0002H   ---   ledInit
      C0189CH     LINE      ---       ---     ---   #68
      C0189CH     LINE      ---       ---     ---   #72
      ---         BLOCKEND  LVL=0     ---     ---   

      C0189EH     BLOCK     LVL=0     0030H   ---   setSingleLed
      000008H     SYMBOL    REG       ---     ---   ledStripIdx
      000049H     SYMBOL    REG       ---     ---   ledIdx
      000000H     SYMBOL    AUTO      ---     ---   rgbVal
      C0189EH     LINE      ---       ---     ---   #77
      C0189EH     LINE      ---       ---     ---   #79
      C018BCH     LINE      ---       ---     ---   #80
      C018C4H     LINE      ---       ---     ---   #81
      C018CCH     LINE      ---       ---     ---   #82
      ---         BLOCKEND  LVL=0     ---     ---   

      C018CEH     BLOCK     LVL=0     00C0H   ---   ledRgbEncodeUpdate
L166 LINKER/LOCATER V5.25                                                             07/19/2019  21:28:00  PAGE 16


      000008H     SYMBOL    REG       ---     ---   ledStripIdx
      C018CEH     BLOCK     LVL=1     00BEH   ---   
      000084H     SYMBOL    REG       ---     ---   curBitEncode
      000086H     SYMBOL    REG       ---     ---   encodeVal
      000082H     SYMBOL    REG       ---     ---   i
      00008EH     SYMBOL    REG       ---     ---   j
      000009H     SYMBOL    REG       ---     ---   k
      ---         BLOCKEND  LVL=1     ---     ---   
      C018CEH     LINE      ---       ---     ---   #87
      C018CEH     LINE      ---       ---     ---   #88
      C018CEH     LINE      ---       ---     ---   #89
      C018D0H     LINE      ---       ---     ---   #90
      C018D2H     LINE      ---       ---     ---   #91
      C018D6H     LINE      ---       ---     ---   #92
      C018D8H     LINE      ---       ---     ---   #93
      C018D8H     LINE      ---       ---     ---   #96
      C018DAH     LINE      ---       ---     ---   #99
      C018E0H     LINE      ---       ---     ---   #101
      C01904H     LINE      ---       ---     ---   #102
      C01906H     LINE      ---       ---     ---   #103
      C01912H     LINE      ---       ---     ---   #105
      C01936H     LINE      ---       ---     ---   #106
      C01938H     LINE      ---       ---     ---   #107
      C01944H     LINE      ---       ---     ---   #109
      C0196AH     LINE      ---       ---     ---   #110
      C0196AH     LINE      ---       ---     ---   #114
      C0196AH     LINE      ---       ---     ---   #136
      C0196CH     LINE      ---       ---     ---   #139
      C0197AH     LINE      ---       ---     ---   #140
      C0197CH     LINE      ---       ---     ---   #141
      C01984H     LINE      ---       ---     ---   #142
      C0198CH     LINE      ---       ---     ---   #143
      ---         BLOCKEND  LVL=0     ---     ---   
      C01CD0H     PUBLIC    LABEL     ---     ---   canUpdate
      C01CCAH     SYMBOL    LABEL     ---     ---   canMsg0x505Upack

      C01CCAH     BLOCK     LVL=0     0006H   ---   canMsg0x505Upack
      000008H     SYMBOL    REG       ---     ---   canSignalObj
      C01CCAH     LINE      ---       ---     ---   #3
      C01CCAH     LINE      ---       ---     ---   #5
      C01CCEH     LINE      ---       ---     ---   #6
      ---         BLOCKEND  LVL=0     ---     ---   

      C01CD0H     BLOCK     LVL=0     0006H   ---   canUpdate
      000004H     SYMBOL    REG       ---     ---   canSignalObj
      C01CD0H     LINE      ---       ---     ---   #8
      C01CD2H     LINE      ---       ---     ---   #10
      C01CD4H     LINE      ---       ---     ---   #11
      ---         BLOCKEND  LVL=0     ---     ---   
      C01A70H     PUBLIC    LABEL     ---     ---   CCU60_vInit
      C01AF8H     PUBLIC    LABEL     ---     ---   CCU60_viNodeI0
      E00686H     PUBLIC    VAR       ---     ---   leftCnt
      E00688H     PUBLIC    VAR       ---     ---   rightCnt
      E0068AH     PUBLIC    VAR       ---     ---   ccuCntArr2
      E0069EH     PUBLIC    VAR       ---     ---   centerCnt

      C01A70H     BLOCK     LVL=0     0088H   ---   CCU60_vInit
L166 LINKER/LOCATER V5.25                                                             07/19/2019  21:28:00  PAGE 17


      C01A70H     LINE      ---       ---     ---   #122
      C01A70H     LINE      ---       ---     ---   #137
      C01A76H     LINE      ---       ---     ---   #139
      C01A78H     LINE      ---       ---     ---   #140
      C01A7AH     LINE      ---       ---     ---   #141
      C01A7CH     LINE      ---       ---     ---   #142
      C01A7EH     LINE      ---       ---     ---   #158
      C01A86H     LINE      ---       ---     ---   #178
      C01A8AH     LINE      ---       ---     ---   #180
      C01A92H     LINE      ---       ---     ---   #199
      C01A98H     LINE      ---       ---     ---   #218
      C01A9CH     LINE      ---       ---     ---   #237
      C01AA0H     LINE      ---       ---     ---   #250
      C01AA4H     LINE      ---       ---     ---   #254
      C01AAAH     LINE      ---       ---     ---   #257
      C01AB2H     LINE      ---       ---     ---   #260
      C01ABAH     LINE      ---       ---     ---   #262
      C01AC2H     LINE      ---       ---     ---   #287
      C01AC8H     LINE      ---       ---     ---   #290
      C01AD0H     LINE      ---       ---     ---   #301
      C01AD8H     LINE      ---       ---     ---   #302
      C01ADCH     LINE      ---       ---     ---   #303
      C01AE0H     LINE      ---       ---     ---   #305
      C01AE8H     LINE      ---       ---     ---   #315
      C01AEEH     LINE      ---       ---     ---   #324
      C01AF6H     LINE      ---       ---     ---   #331
      ---         BLOCKEND  LVL=0     ---     ---   

      C01AF8H     BLOCK     LVL=0     005AH   ---   CCU60_viNodeI0
      C01AF8H     LINE      ---       ---     ---   #365
      C01B00H     LINE      ---       ---     ---   #381
      C01B08H     LINE      ---       ---     ---   #382
      C01B10H     LINE      ---       ---     ---   #392
      C01B1AH     LINE      ---       ---     ---   #394
      C01B24H     LINE      ---       ---     ---   #395
      C01B2EH     LINE      ---       ---     ---   #396
      C01B32H     LINE      ---       ---     ---   #397
      C01B34H     LINE      ---       ---     ---   #400
      C01B38H     LINE      ---       ---     ---   #401
      C01B38H     LINE      ---       ---     ---   #405
      C01B42H     LINE      ---       ---     ---   #406
      C01B42H     LINE      ---       ---     ---   #407
      C01B4AH     LINE      ---       ---     ---   #443
      ---         BLOCKEND  LVL=0     ---     ---   
      C01B52H     PUBLIC    LABEL     ---     ---   MAIN_vChangeFreq
      C01C10H     PUBLIC    LABEL     ---     ---   longDelay
      C01BB2H     PUBLIC    LABEL     ---     ---   MAIN_vLockProtecReg
      C01C02H     PUBLIC    LABEL     ---     ---   delay
      C01BFEH     PUBLIC    LABEL     ---     ---   delay300ns
      C01B84H     PUBLIC    LABEL     ---     ---   MAIN_vUnlockProtecReg

      C01B52H     BLOCK     LVL=0     0032H   ---   MAIN_vChangeFreq
      C01B52H     LINE      ---       ---     ---   #25
      C01B52H     LINE      ---       ---     ---   #27
      C01B56H     LINE      ---       ---     ---   #33
      C01B60H     LINE      ---       ---     ---   #39
      C01B66H     LINE      ---       ---     ---   #40
L166 LINKER/LOCATER V5.25                                                             07/19/2019  21:28:00  PAGE 18


      C01B6CH     LINE      ---       ---     ---   #42
      C01B6EH     LINE      ---       ---     ---   #46
      C01B7CH     LINE      ---       ---     ---   #50
      C01B7EH     LINE      ---       ---     ---   #52
      C01B80H     LINE      ---       ---     ---   #59
      C01B82H     LINE      ---       ---     ---   #60
      C01B82H     LINE      ---       ---     ---   #63
      C01B82H     LINE      ---       ---     ---   #65
      ---         BLOCKEND  LVL=0     ---     ---   

      C01B84H     BLOCK     LVL=0     002EH   ---   MAIN_vUnlockProtecReg
      C01B84H     BLOCK     LVL=1     002CH   ---   
      000005H     SYMBOL    REG       ---     ---   uwPASSWORD
      ---         BLOCKEND  LVL=1     ---     ---   
      C01B84H     LINE      ---       ---     ---   #90
      C01B84H     LINE      ---       ---     ---   #91
      C01B84H     LINE      ---       ---     ---   #94
      C01B8AH     LINE      ---       ---     ---   #95
      C01B8EH     LINE      ---       ---     ---   #97
      C01B96H     LINE      ---       ---     ---   #98
      C01BA0H     LINE      ---       ---     ---   #100
      C01BAAH     LINE      ---       ---     ---   #101
      C01BB0H     LINE      ---       ---     ---   #103
      ---         BLOCKEND  LVL=0     ---     ---   

      C01BB2H     BLOCK     LVL=0     004CH   ---   MAIN_vLockProtecReg
      C01BB2H     BLOCK     LVL=1     004AH   ---   
      000005H     SYMBOL    REG       ---     ---   uwPASSWORD
      ---         BLOCKEND  LVL=1     ---     ---   
      C01BB2H     LINE      ---       ---     ---   #128
      C01BB2H     LINE      ---       ---     ---   #129
      C01BB2H     LINE      ---       ---     ---   #132
      C01BB8H     LINE      ---       ---     ---   #133
      C01BBCH     LINE      ---       ---     ---   #135
      C01BC4H     LINE      ---       ---     ---   #136
      C01BCEH     LINE      ---       ---     ---   #138
      C01BD8H     LINE      ---       ---     ---   #139
      C01BDEH     LINE      ---       ---     ---   #141
      C01BE8H     LINE      ---       ---     ---   #142
      C01BF2H     LINE      ---       ---     ---   #143
      C01BFCH     LINE      ---       ---     ---   #145
      ---         BLOCKEND  LVL=0     ---     ---   

      C01BFEH     BLOCK     LVL=0     0004H   ---   delay300ns
      C01BFEH     LINE      ---       ---     ---   #148
      C01BFEH     LINE      ---       ---     ---   #150
      C01C00H     LINE      ---       ---     ---   #151
      ---         BLOCKEND  LVL=0     ---     ---   

      C01C02H     BLOCK     LVL=0     000EH   ---   delay
      000008H     SYMBOL    REG       ---     ---   cycle
      C01C02H     BLOCK     LVL=1     000CH   ---   
      000005H     SYMBOL    REG       ---     ---   i
      ---         BLOCKEND  LVL=1     ---     ---   
      C01C02H     LINE      ---       ---     ---   #153
      C01C02H     LINE      ---       ---     ---   #154
      C01C02H     LINE      ---       ---     ---   #155
L166 LINKER/LOCATER V5.25                                                             07/19/2019  21:28:00  PAGE 19


      C01C04H     LINE      ---       ---     ---   #157
      C01C06H     LINE      ---       ---     ---   #159
      C01C08H     LINE      ---       ---     ---   #160
      C01C0EH     LINE      ---       ---     ---   #161
      ---         BLOCKEND  LVL=0     ---     ---   

      C01C10H     BLOCK     LVL=0     0016H   ---   longDelay
      000006H     SYMBOL    REG       ---     ---   cycle
      C01C12H     BLOCK     LVL=1     0012H   ---   
      00008EH     SYMBOL    REG       ---     ---   i
      ---         BLOCKEND  LVL=1     ---     ---   
      C01C10H     LINE      ---       ---     ---   #163
      C01C12H     LINE      ---       ---     ---   #164
      C01C12H     LINE      ---       ---     ---   #165
      C01C14H     LINE      ---       ---     ---   #166
      C01C16H     LINE      ---       ---     ---   #168
      C01C1CH     LINE      ---       ---     ---   #169
      C01C24H     LINE      ---       ---     ---   #170
      ---         BLOCKEND  LVL=0     ---     ---   
      C01C26H     PUBLIC    LABEL     ---     ---   setPwmDutyCyc
      E006B6H     PUBLIC    VAR       ---     ---   ccuCntArr

      C01C26H     BLOCK     LVL=0     00A4H   ---   setPwmDutyCyc
      000048H     SYMBOL    REG       ---     ---   pwmPort
      000049H     SYMBOL    REG       ---     ---   dutyCyc
      C01C26H     BLOCK     LVL=1     00A2H   ---   
      000006H     SYMBOL    REG       ---     ---   dutyVal
      ---         BLOCKEND  LVL=1     ---     ---   
      C01C26H     LINE      ---       ---     ---   #5
      C01C26H     LINE      ---       ---     ---   #6
      C01C26H     LINE      ---       ---     ---   #7
      C01C28H     LINE      ---       ---     ---   #13
      C01C30H     LINE      ---       ---     ---   #14
      C01C4EH     LINE      ---       ---     ---   #15
      C01C56H     LINE      ---       ---     ---   #16
      C01C5EH     LINE      ---       ---     ---   #17
      C01C66H     LINE      ---       ---     ---   #18
      C01C6EH     LINE      ---       ---     ---   #19
      C01C76H     LINE      ---       ---     ---   #20
      C01C84H     LINE      ---       ---     ---   #22
      C01C84H     LINE      ---       ---     ---   #23
      C01C88H     LINE      ---       ---     ---   #24
      C01C8AH     LINE      ---       ---     ---   #25
      C01C8AH     LINE      ---       ---     ---   #26
      C01C8EH     LINE      ---       ---     ---   #27
      C01C90H     LINE      ---       ---     ---   #28
      C01C90H     LINE      ---       ---     ---   #29
      C01C94H     LINE      ---       ---     ---   #30
      C01C94H     LINE      ---       ---     ---   #31
      C01C94H     LINE      ---       ---     ---   #32
      C01C9EH     LINE      ---       ---     ---   #33
      C01CA8H     LINE      ---       ---     ---   #34
      C01CB0H     LINE      ---       ---     ---   #35
      C01CB8H     LINE      ---       ---     ---   #36
      C01CC0H     LINE      ---       ---     ---   #37
      C01CC8H     LINE      ---       ---     ---   #38
      ---         BLOCKEND  LVL=0     ---     ---   
L166 LINKER/LOCATER V5.25                                                             07/19/2019  21:28:00  PAGE 20


      C0175AH     PUBLIC    LABEL     ---     ---   EnableVcoBypass
      C01836H     PUBLIC    LABEL     ---     ---   SCS_CountClocksWithTimer
      C01768H     PUBLIC    LABEL     ---     ---   DisableVcoBypass
      C01776H     PUBLIC    LABEL     ---     ---   WaitForTimer13Stop
      C01830H     PUBLIC    LABEL     ---     ---   SCS_SwitchToHighPrecBandgap
      C017A4H     PUBLIC    LABEL     ---     ---   SCS_SwitchSystemClock
      C01742H     PUBLIC    LABEL     ---     ---   SetK2
      C01780H     PUBLIC    LABEL     ---     ---   SCS_StartXtalOsc

      C01742H     BLOCK     LVL=0     0018H   ---   SetK2
      000008H     SYMBOL    REG       ---     ---   K2
      C01742H     LINE      ---       ---     ---   #208
      C01742H     LINE      ---       ---     ---   #214
      C0174CH     LINE      ---       ---     ---   #217
      C01750H     LINE      ---       ---     ---   #221
      C01750H     LINE      ---       ---     ---   #238
      C01758H     LINE      ---       ---     ---   #239
      ---         BLOCKEND  LVL=0     ---     ---   

      C0175AH     BLOCK     LVL=0     000EH   ---   EnableVcoBypass
      C0175AH     LINE      ---       ---     ---   #262
      C0175AH     LINE      ---       ---     ---   #265
      C0175EH     LINE      ---       ---     ---   #268
      C0175EH     LINE      ---       ---     ---   #285
      C01766H     LINE      ---       ---     ---   #286
      ---         BLOCKEND  LVL=0     ---     ---   

      C01768H     BLOCK     LVL=0     000EH   ---   DisableVcoBypass
      C01768H     LINE      ---       ---     ---   #309
      C01768H     LINE      ---       ---     ---   #312
      C0176CH     LINE      ---       ---     ---   #315
      C0176CH     LINE      ---       ---     ---   #332
      C01774H     LINE      ---       ---     ---   #333
      ---         BLOCKEND  LVL=0     ---     ---   

      C01776H     BLOCK     LVL=0     000AH   ---   WaitForTimer13Stop
      C01776H     LINE      ---       ---     ---   #358
      C01776H     LINE      ---       ---     ---   #361
      C01776H     LINE      ---       ---     ---   #370
      C0177EH     LINE      ---       ---     ---   #371
      ---         BLOCKEND  LVL=0     ---     ---   

      C01780H     BLOCK     LVL=0     0024H   ---   SCS_StartXtalOsc
      000008H     SYMBOL    REG       ---     ---   UseTimer
      C0178AH     BLOCK     LVL=1     0010H   ---   
      000004H     SYMBOL    REG       ---     ---   K2?1?SetK2
      ---         BLOCKEND  LVL=1     ---     ---   
      C01780H     LINE      ---       ---     ---   #406
      C01780H     LINE      ---       ---     ---   #427
      C01786H     LINE      ---       ---     ---   #430
      C0178AH     LINE      ---       ---     ---   #442
      C0178AH     LINE      ---       ---     ---   #214
      C01790H     LINE      ---       ---     ---   #217
      C01792H     LINE      ---       ---     ---   #221
      C01792H     LINE      ---       ---     ---   #238
      C0179AH     LINE      ---       ---     ---   #445
      C017A2H     LINE      ---       ---     ---   #446
L166 LINKER/LOCATER V5.25                                                             07/19/2019  21:28:00  PAGE 21


      ---         BLOCKEND  LVL=0     ---     ---   

      C017A4H     BLOCK     LVL=0     008CH   ---   SCS_SwitchSystemClock
      000008H     SYMBOL    REG       ---     ---   UseTimer
      C017B0H     BLOCK     LVL=1     0010H   ---   
      000004H     SYMBOL    REG       ---     ---   K2?3?SetK2
      ---         BLOCKEND  LVL=1     ---     ---   
      C017DAH     BLOCK     LVL=1     0010H   ---   
      000004H     SYMBOL    REG       ---     ---   K2?5?SetK2
      ---         BLOCKEND  LVL=1     ---     ---   
      C017F6H     BLOCK     LVL=1     0010H   ---   
      000004H     SYMBOL    REG       ---     ---   K2?7?SetK2
      ---         BLOCKEND  LVL=1     ---     ---   
      C01806H     BLOCK     LVL=1     0010H   ---   
      000004H     SYMBOL    REG       ---     ---   K2?8?SetK2
      ---         BLOCKEND  LVL=1     ---     ---   
      C017A4H     LINE      ---       ---     ---   #485
      C017A4H     LINE      ---       ---     ---   #487
      C017A8H     LINE      ---       ---     ---   #361
      C017A8H     LINE      ---       ---     ---   #370
      C017B0H     LINE      ---       ---     ---   #502
      C017B0H     LINE      ---       ---     ---   #214
      C017B6H     LINE      ---       ---     ---   #217
      C017B8H     LINE      ---       ---     ---   #221
      C017B8H     LINE      ---       ---     ---   #238
      C017C0H     LINE      ---       ---     ---   #504
      C017C0H     LINE      ---       ---     ---   #509
      C017C6H     LINE      ---       ---     ---   #265
      C017C8H     LINE      ---       ---     ---   #268
      C017C8H     LINE      ---       ---     ---   #285
      C017D0H     LINE      ---       ---     ---   #534
      C017D6H     LINE      ---       ---     ---   #558
      C017DAH     LINE      ---       ---     ---   #563
      C017DAH     LINE      ---       ---     ---   #214
      C017DEH     LINE      ---       ---     ---   #217
      C017E2H     LINE      ---       ---     ---   #221
      C017E2H     LINE      ---       ---     ---   #238
      C017EAH     LINE      ---       ---     ---   #312
      C017EEH     LINE      ---       ---     ---   #315
      C017EEH     LINE      ---       ---     ---   #332
      C017F6H     LINE      ---       ---     ---   #569
      C017F6H     LINE      ---       ---     ---   #214
      C017FCH     LINE      ---       ---     ---   #217
      C017FEH     LINE      ---       ---     ---   #221
      C017FEH     LINE      ---       ---     ---   #238
      C01806H     LINE      ---       ---     ---   #576
      C01806H     LINE      ---       ---     ---   #214
      C0180CH     LINE      ---       ---     ---   #217
      C0180EH     LINE      ---       ---     ---   #221
      C0180EH     LINE      ---       ---     ---   #238
      C01816H     LINE      ---       ---     ---   #587
      C0181CH     LINE      ---       ---     ---   #589
      C01820H     LINE      ---       ---     ---   #591
      C01824H     LINE      ---       ---     ---   #593
      C01828H     LINE      ---       ---     ---   #595
      C0182EH     LINE      ---       ---     ---   #597
      ---         BLOCKEND  LVL=0     ---     ---   
L166 LINKER/LOCATER V5.25                                                             07/19/2019  21:28:00  PAGE 22



      C01830H     BLOCK     LVL=0     0006H   ---   SCS_SwitchToHighPrecBandgap
      C01830H     LINE      ---       ---     ---   #627
      C01830H     LINE      ---       ---     ---   #674
      C01834H     LINE      ---       ---     ---   #676
      ---         BLOCKEND  LVL=0     ---     ---   

      C01836H     BLOCK     LVL=0     0066H   ---   SCS_CountClocksWithTimer
      000008H     SYMBOL    REG       ---     ---   Source
      000009H     SYMBOL    REG       ---     ---   Clocks
      C01838H     BLOCK     LVL=1     0060H   ---   
      000000H     SYMBOL    AUTO      ---     ---   Work
      ---         BLOCKEND  LVL=1     ---     ---   
      C01836H     LINE      ---       ---     ---   #717
      C01838H     LINE      ---       ---     ---   #718
      C01838H     LINE      ---       ---     ---   #733
      C01842H     LINE      ---       ---     ---   #735
      C01848H     LINE      ---       ---     ---   #740
      C01852H     LINE      ---       ---     ---   #756
      C0185AH     LINE      ---       ---     ---   #759
      C01862H     LINE      ---       ---     ---   #775
      C0186AH     LINE      ---       ---     ---   #805
      C01878H     LINE      ---       ---     ---   #817
      C01886H     LINE      ---       ---     ---   #839
      C01890H     LINE      ---       ---     ---   #857
      C01898H     LINE      ---       ---     ---   #860
      ---         BLOCKEND  LVL=0     ---     ---   
      C00104H     PUBLIC    LABEL     ---     ---   ?C_STARTUP
      000000H     PUBLIC    CONST     ---     ---   ?L?VECSC
      E00000H     PUBLIC    VAR       ---     ---   ?C_USRSTKBOT
      00F600H     PUBLIC    VAR       ---     ---   ?C_SYSSTKBOT
      00F800H     PUBLIC    VAR       ---     ---   ?C_SYSSTKTOP
      000000H     GLOBAL    INTNO     ---     ---   RESET
      000000H     SYMBOL    RBANK     ---     ---   ?C_MAINREGISTERS
      E00200H     SYMBOL    VAR       ---     ---   ?C_USERSTKTOP
      E00220H     SYMBOL    VAR       ---     ---   ?C_USERSTKTOP1
      E00240H     SYMBOL    VAR       ---     ---   ?C_USERSTKTOP2
      E00200H     SYMBOL    VAR       ---     ---   ?C_USRSTKBOT1
      E00220H     SYMBOL    VAR       ---     ---   ?C_USRSTKBOT2
      00FE10H     SYMBOL    SFR       ---     ---   CP
      00FE00H     SYMBOL    SFR       ---     ---   DPP0
      00FE02H     SYMBOL    SFR       ---     ---   DPP1
      00FE04H     SYMBOL    SFR       ---     ---   DPP2
      00FE06H     SYMBOL    SFR       ---     ---   DPP3
      00F1B4H     SYMBOL    ESFR      ---     ---   HPOSCCON
      000400H     SYMBOL    CONST     ---     ---   KB
      00F1B8H     SYMBOL    ESFR      ---     ---   PLLCON0
      00F1B9H.7   SYMBOL    ESBIT     ---     ---   PLLCON0_NACK
      00F1BAH     SYMBOL    ESFR      ---     ---   PLLCON1
      00F1BBH.7   SYMBOL    ESBIT     ---     ---   PLLCON1_PACK
      00F1BCH     SYMBOL    ESFR      ---     ---   PLLCON2
      00F1BDH.7   SYMBOL    ESBIT     ---     ---   PLLCON2_K1ACK
      00F1BEH     SYMBOL    ESFR      ---     ---   PLLCON3
      00F1BFH.7   SYMBOL    ESBIT     ---     ---   PLLCON3_K2ACK
      00F0BCH     SYMBOL    ESFR      ---     ---   PLLSTAT
      00FF10H     SYMBOL    SFR       ---     ---   PSW
      00FE12H     SYMBOL    SFR       ---     ---   SP
L166 LINKER/LOCATER V5.25                                                             07/19/2019  21:28:00  PAGE 23


      00FF0CH     SYMBOL    SFR       ---     ---   SPSEG
      000200H     SYMBOL    CONST     ---     ---   SSTSZ
      00F0E2H     SYMBOL    ESFR      ---     ---   STATCLR1
      00FE14H     SYMBOL    SFR       ---     ---   STKOV
      00FE16H     SYMBOL    SFR       ---     ---   STKUN
      000020H     SYMBOL    CONST     ---     ---   UST1SZ
      000020H     SYMBOL    CONST     ---     ---   UST2SZ
      000200H     SYMBOL    CONST     ---     ---   USTSZ
      000000H     SYMBOL    CONST     ---     ---   _AOSCSEL
      00F600H     SYMBOL    VAR       ---     ---   _BOS
      000000H     SYMBOL    CONST     ---     ---   _HPOSCCON
      000000H     SYMBOL    CONST     ---     ---   _HP_EMCLKEN
      000000H     SYMBOL    CONST     ---     ---   _HP_EMFINDISEN
      000001H     SYMBOL    CONST     ---     ---   _K1DIV
      000001H     SYMBOL    CONST     ---     ---   _K2DIV
      000000H     SYMBOL    CONST     ---     ---   _MODE
      000013H     SYMBOL    CONST     ---     ---   _NDIV
      000000H     SYMBOL    CONST     ---     ---   _OSCSEL
      000000H     SYMBOL    CONST     ---     ---   _OSCWDTRST
      000000H     SYMBOL    CONST     ---     ---   _PDIV
      001305H     SYMBOL    CONST     ---     ---   _PLLCON0
      000000H     SYMBOL    CONST     ---     ---   _PLLCON1
      000000H     SYMBOL    CONST     ---     ---   _PLLPWD
      000000H     SYMBOL    CONST     ---     ---   _PLL_EMCLKEN
      000000H     SYMBOL    CONST     ---     ---   _PLL_EMFINDISEN
      000000H     SYMBOL    CONST     ---     ---   _SHBY
      000002H     SYMBOL    CONST     ---     ---   _TMP_K2DIV
      00F800H     SYMBOL    VAR       ---     ---   _TOS
      000000H     SYMBOL    CONST     ---     ---   _VCOBY
      000000H     SYMBOL    CONST     ---     ---   _VCOPWD
      000001H     SYMBOL    CONST     ---     ---   _VCOSEL
      000000H     SYMBOL    CONST     ---     ---   _VECSC
      000000H     SYMBOL    CONST     ---     ---   _X1DEN

      C00104H     BLOCK     LVL=0     01CAH   ---   ?C_RESET
      C00104H     LINE      ---       ---     ---   #1414
      C00108H     LINE      ---       ---     ---   #1424
      C0010CH     LINE      ---       ---     ---   #1425
      C00110H     LINE      ---       ---     ---   #1426
      C00114H     LINE      ---       ---     ---   #1427
      C00118H     LINE      ---       ---     ---   #1588
      C0011AH     LINE      ---       ---     ---   #1589
      C0011EH     LINE      ---       ---     ---   #1591
      C00120H     LINE      ---       ---     ---   #1593
      C00122H     LINE      ---       ---     ---   #1594
      C00126H     LINE      ---       ---     ---   #1595
      C0012AH     LINE      ---       ---     ---   #1596
      C0012CH     LINE      ---       ---     ---   #1597
      C00130H     LINE      ---       ---     ---   #1598
      C00134H     LINE      ---       ---     ---   #1606
      C00136H     LINE      ---       ---     ---   #1607
      C0013AH     LINE      ---       ---     ---   #1608
      C0013EH     LINE      ---       ---     ---   #1621
      C00140H     LINE      ---       ---     ---   #1625
      C00144H     LINE      ---       ---     ---   #1628
      C00146H     LINE      ---       ---     ---   #1629
      C0014AH     LINE      ---       ---     ---   #1630
L166 LINKER/LOCATER V5.25                                                             07/19/2019  21:28:00  PAGE 24


      C0014CH     LINE      ---       ---     ---   #1631
      C0014EH     LINE      ---       ---     ---   #1632
      C00152H     LINE      ---       ---     ---   #1633
      C00156H     LINE      ---       ---     ---   #1634
      C00158H     LINE      ---       ---     ---   #1637
      C0015AH     LINE      ---       ---     ---   #1638
      C0015EH     LINE      ---       ---     ---   #1639
      C00162H     LINE      ---       ---     ---   #1645
      C00164H     LINE      ---       ---     ---   #1646
      C00168H     LINE      ---       ---     ---   #1650
      C0016CH     LINE      ---       ---     ---   #1651
      C00170H     LINE      ---       ---     ---   #1655
      C00172H     LINE      ---       ---     ---   #1656
      C00176H     LINE      ---       ---     ---   #1661
      C00178H     LINE      ---       ---     ---   #1662
      C0017CH     LINE      ---       ---     ---   #1664
      C0017EH     LINE      ---       ---     ---   #1665
      C00182H     LINE      ---       ---     ---   #1666
      C00186H     LINE      ---       ---     ---   #1668
      C00188H     LINE      ---       ---     ---   #1669
      C0018CH     LINE      ---       ---     ---   #1671
      C00190H     LINE      ---       ---     ---   #1672
      C00194H     LINE      ---       ---     ---   #1675
      C00196H     LINE      ---       ---     ---   #1676
      C0019AH     LINE      ---       ---     ---   #1680
      C0019CH     LINE      ---       ---     ---   #1681
      C001A0H     LINE      ---       ---     ---   #1683
      C001A2H     LINE      ---       ---     ---   #1684
      C001A6H     LINE      ---       ---     ---   #1686
      C001A8H     LINE      ---       ---     ---   #1687
      C001ACH     LINE      ---       ---     ---   #1692
      C001AEH     LINE      ---       ---     ---   #1693
      C001B2H     LINE      ---       ---     ---   #1715
      C001B6H     LINE      ---       ---     ---   #1717
      C001BAH     LINE      ---       ---     ---   #1718
      C001BEH     LINE      ---       ---     ---   #1722
      C001C2H     LINE      ---       ---     ---   #1724
      C001C6H     LINE      ---       ---     ---   #1728
      C001CAH     LINE      ---       ---     ---   #1729
      C001CEH     LINE      ---       ---     ---   #1733
      C001D2H     LINE      ---       ---     ---   #1734
      C001D6H     LINE      ---       ---     ---   #1738
      C001DAH     LINE      ---       ---     ---   #1741
      C001DEH     LINE      ---       ---     ---   #1793
      C001E2H     LINE      ---       ---     ---   #1794
      C001E6H     LINE      ---       ---     ---   #1795
      C001E8H     LINE      ---       ---     ---   #1796
      C001EAH     LINE      ---       ---     ---   #1797
      C001ECH     LINE      ---       ---     ---   #1803
      C001EEH     LINE      ---       ---     ---   #1804
      C001F0H     LINE      ---       ---     ---   #1805
      C001F2H     LINE      ---       ---     ---   #1806
      C001F4H     LINE      ---       ---     ---   #1807
      C001F6H     LINE      ---       ---     ---   #1808
      C001F8H     LINE      ---       ---     ---   #1809
      C001FAH     LINE      ---       ---     ---   #1810
      C001FEH     LINE      ---       ---     ---   #1811
L166 LINKER/LOCATER V5.25                                                             07/19/2019  21:28:00  PAGE 25


      C00202H     LINE      ---       ---     ---   #1813
      C00204H     LINE      ---       ---     ---   #1814
      C00206H     LINE      ---       ---     ---   #1815
      C00208H     LINE      ---       ---     ---   #1816
      C0020CH     LINE      ---       ---     ---   #1817
      C0020EH     LINE      ---       ---     ---   #1818
      C00210H     LINE      ---       ---     ---   #1819
      C00212H     LINE      ---       ---     ---   #1820
      C00214H     LINE      ---       ---     ---   #1821
      C00216H     LINE      ---       ---     ---   #1822
      C00218H     LINE      ---       ---     ---   #1823
      C0021AH     LINE      ---       ---     ---   #1824
      C0021CH     LINE      ---       ---     ---   #1825
      C0021EH     LINE      ---       ---     ---   #1827
      C00220H     LINE      ---       ---     ---   #1828
      C00222H     LINE      ---       ---     ---   #1833
      C00224H     LINE      ---       ---     ---   #1834
      C00226H     LINE      ---       ---     ---   #1835
      C00228H     LINE      ---       ---     ---   #1836
      C0022AH     LINE      ---       ---     ---   #1837
      C0022EH     LINE      ---       ---     ---   #1838
      C00230H     LINE      ---       ---     ---   #1839
      C00232H     LINE      ---       ---     ---   #1840
      C00234H     LINE      ---       ---     ---   #1846
      C00236H     LINE      ---       ---     ---   #1847
      C00238H     LINE      ---       ---     ---   #1848
      C0023AH     LINE      ---       ---     ---   #1849
      C0023CH     LINE      ---       ---     ---   #1850
      C0023EH     LINE      ---       ---     ---   #1911
      C00242H     LINE      ---       ---     ---   #1912
      C00246H     LINE      ---       ---     ---   #1918
      C0024AH     LINE      ---       ---     ---   #1919
      C0024CH     LINE      ---       ---     ---   #1920
      C0024EH     LINE      ---       ---     ---   #1921
      C00250H     LINE      ---       ---     ---   #1922
      C00252H     LINE      ---       ---     ---   #1923
      C00254H     LINE      ---       ---     ---   #1924
      C00258H     LINE      ---       ---     ---   #1925
      C0025AH     LINE      ---       ---     ---   #1926
      C0025EH     LINE      ---       ---     ---   #1927
      C00260H     LINE      ---       ---     ---   #1928
      C00262H     LINE      ---       ---     ---   #1929
      C00264H     LINE      ---       ---     ---   #1930
      C00266H     LINE      ---       ---     ---   #1931
      C00268H     LINE      ---       ---     ---   #1932
      C0026AH     LINE      ---       ---     ---   #1933
      C0026CH     LINE      ---       ---     ---   #1934
      C0026EH     LINE      ---       ---     ---   #1935
      C00270H     LINE      ---       ---     ---   #1936
      C00272H     LINE      ---       ---     ---   #1937
      C00276H     LINE      ---       ---     ---   #1938
      C0027AH     LINE      ---       ---     ---   #1939
      C0027CH     LINE      ---       ---     ---   #1940
      C0027EH     LINE      ---       ---     ---   #1941
      C00280H     LINE      ---       ---     ---   #1942
      C00282H     LINE      ---       ---     ---   #1943
      C00284H     LINE      ---       ---     ---   #1944
L166 LINKER/LOCATER V5.25                                                             07/19/2019  21:28:00  PAGE 26


      C00286H     LINE      ---       ---     ---   #1945
      C00288H     LINE      ---       ---     ---   #1946
      C0028AH     LINE      ---       ---     ---   #1947
      C0028CH     LINE      ---       ---     ---   #1948
      C0028EH     LINE      ---       ---     ---   #1949
      C00292H     LINE      ---       ---     ---   #1950
      C00296H     LINE      ---       ---     ---   #1951
      C0029AH     LINE      ---       ---     ---   #1952
      C0029EH     LINE      ---       ---     ---   #1957
      C002A0H     LINE      ---       ---     ---   #1958
      C002A2H     LINE      ---       ---     ---   #1959
      C002A6H     LINE      ---       ---     ---   #1960
      C002A8H     LINE      ---       ---     ---   #1961
      C002AAH     LINE      ---       ---     ---   #1962
      C002ACH     LINE      ---       ---     ---   #1964
      C002AEH     LINE      ---       ---     ---   #1965
      C002B0H     LINE      ---       ---     ---   #1966
      C002B4H     LINE      ---       ---     ---   #1967
      C002B6H     LINE      ---       ---     ---   #1968
      C002B8H     LINE      ---       ---     ---   #1969
      C002BAH     LINE      ---       ---     ---   #1970
      C002BEH     LINE      ---       ---     ---   #1971
      C002C0H     LINE      ---       ---     ---   #1972
      C002C2H     LINE      ---       ---     ---   #1973
      C002C4H     LINE      ---       ---     ---   #1974
      C002C6H     LINE      ---       ---     ---   #1975
      C002C8H     LINE      ---       ---     ---   #1976
      C002CAH     LINE      ---       ---     ---   #2065
      C002CAH     SYMBOL    LABEL     ---     ---   EndInit
      C002C6H     SYMBOL    LABEL     ---     ---   StoreBit
      C002C4H     SYMBOL    LABEL     ---     ---   SetBit
      C002ACH     SYMBOL    LABEL     ---     ---   InitBit
      C0029EH     SYMBOL    LABEL     ---     ---   NoDPP3Adj
      C00282H     SYMBOL    LABEL     ---     ---   CopyInitVal
      C0026AH     SYMBOL    LABEL     ---     ---   LenLoad
      C00246H     SYMBOL    LABEL     ---     ---   RepeatInit
      C0023EH     SYMBOL    LABEL     ---     ---   Init_Vars
      C0023EH     SYMBOL    LABEL     ---     ---   EndClear
      C00234H     SYMBOL    LABEL     ---     ---   ClearNear
      C00222H     SYMBOL    LABEL     ---     ---   RepClearFar
      C0021EH     SYMBOL    LABEL     ---     ---   ClearFar
      C00202H     SYMBOL    LABEL     ---     ---   ClearBit
      C001ECH     SYMBOL    LABEL     ---     ---   RepeatClear
      C001DEH     SYMBOL    LABEL     ---     ---   Clr_Memory
      C0018CH     SYMBOL    LABEL     ---     ---   WNBY
      C0017CH     SYMBOL    LABEL     ---     ---   WLOK
      C0014CH     SYMBOL    LABEL     ---     ---   WBY
      C00120H     SYMBOL    LABEL     ---     ---   WHPO
      ---         BLOCKEND  LVL=0     ---     ---   

      C002CEH     BLOCK     LVL=0     00C8H   ---   ?C_UTILFUNCS
      C002CEH     LINE      ---       ---     ---   #2071
      C002D2H     LINE      ---       ---     ---   #2072
      C002D4H     LINE      ---       ---     ---   #2073
      C002D6H     LINE      ---       ---     ---   #2074
      C002D8H     LINE      ---       ---     ---   #2076
      C002DCH     LINE      ---       ---     ---   #2077
L166 LINKER/LOCATER V5.25                                                             07/19/2019  21:28:00  PAGE 27


      C002DEH     LINE      ---       ---     ---   #2078
      C002E0H     LINE      ---       ---     ---   #2079
      C002E2H     LINE      ---       ---     ---   #2081
      C002E6H     LINE      ---       ---     ---   #2082
      C002EAH     LINE      ---       ---     ---   #2083
      C002ECH     LINE      ---       ---     ---   #2084
      C002EEH     LINE      ---       ---     ---   #2086
      C002F2H     LINE      ---       ---     ---   #2088
      C002F6H     LINE      ---       ---     ---   #2089
      C002FAH     LINE      ---       ---     ---   #2091
      C002FCH     LINE      ---       ---     ---   #2092
      C002FEH     LINE      ---       ---     ---   #2093
      C00302H     LINE      ---       ---     ---   #2094
      C00306H     LINE      ---       ---     ---   #2096
      C00308H     LINE      ---       ---     ---   #2099
      C0030CH     LINE      ---       ---     ---   #2100
      C00310H     LINE      ---       ---     ---   #2101
      C00312H     LINE      ---       ---     ---   #2102
      C00314H     LINE      ---       ---     ---   #2104
      C00318H     LINE      ---       ---     ---   #2106
      C0031CH     LINE      ---       ---     ---   #2107
      C00320H     LINE      ---       ---     ---   #2109
      C00322H     LINE      ---       ---     ---   #2110
      C00324H     LINE      ---       ---     ---   #2112
      C00328H     LINE      ---       ---     ---   #2113
      C0032CH     LINE      ---       ---     ---   #2115
      C0032EH     LINE      ---       ---     ---   #2118
      C00332H     LINE      ---       ---     ---   #2119
      C00334H     LINE      ---       ---     ---   #2120
      C00338H     LINE      ---       ---     ---   #2121
      C0033AH     LINE      ---       ---     ---   #2122
      C0033CH     LINE      ---       ---     ---   #2123
      C00340H     LINE      ---       ---     ---   #2124
      C00342H     LINE      ---       ---     ---   #2126
      C00344H     LINE      ---       ---     ---   #2127
      C00348H     LINE      ---       ---     ---   #2128
      C0034CH     LINE      ---       ---     ---   #2129
      C00350H     LINE      ---       ---     ---   #2130
      C00354H     LINE      ---       ---     ---   #2131
      C00356H     LINE      ---       ---     ---   #2132
      C00358H     LINE      ---       ---     ---   #2133
      C0035CH     LINE      ---       ---     ---   #2134
      C00360H     LINE      ---       ---     ---   #2135
      C00362H     LINE      ---       ---     ---   #2138
      C00366H     LINE      ---       ---     ---   #2139
      C00368H     LINE      ---       ---     ---   #2140
      C0036CH     LINE      ---       ---     ---   #2141
      C0036EH     LINE      ---       ---     ---   #2142
      C00370H     LINE      ---       ---     ---   #2143
      C00374H     LINE      ---       ---     ---   #2144
      C00376H     LINE      ---       ---     ---   #2146
      C00378H     LINE      ---       ---     ---   #2147
      C0037CH     LINE      ---       ---     ---   #2148
      C00380H     LINE      ---       ---     ---   #2149
      C00384H     LINE      ---       ---     ---   #2150
      C00388H     LINE      ---       ---     ---   #2151
      C0038AH     LINE      ---       ---     ---   #2152
L166 LINKER/LOCATER V5.25                                                             07/19/2019  21:28:00  PAGE 28


      C0038CH     LINE      ---       ---     ---   #2153
      C00390H     LINE      ---       ---     ---   #2154
      C00394H     LINE      ---       ---     ---   #2155
      C0038CH     SYMBOL    LABEL     ---     ---   NSETLoop
      C00380H     SYMBOL    LABEL     ---     ---   NCLRLoop
      C00376H     SYMBOL    LABEL     ---     ---   AppNDiv
      C00362H     SYMBOL    LABEL     ---     ---   ApplyNewNDiv
      C00358H     SYMBOL    LABEL     ---     ---   PSETLoop
      C0034CH     SYMBOL    LABEL     ---     ---   PCLRLoop
      C00342H     SYMBOL    LABEL     ---     ---   AppPDiv
      C0032EH     SYMBOL    LABEL     ---     ---   ApplyNewPDiv
      C0032CH     SYMBOL    LABEL     ---     ---   K2DivDone
      C00324H     SYMBOL    LABEL     ---     ---   K2SETLoop
      C00318H     SYMBOL    LABEL     ---     ---   K2CLRLoop
      C00308H     SYMBOL    LABEL     ---     ---   ApplyNewK2Div
      C00306H     SYMBOL    LABEL     ---     ---   K1DivDone
      C002FEH     SYMBOL    LABEL     ---     ---   K1SETLoop
      C002F2H     SYMBOL    LABEL     ---     ---   K1CLRLoop
      C002E2H     SYMBOL    LABEL     ---     ---   ApplyNewK1Div
      C002DCH     SYMBOL    LABEL     ---     ---   Del2
      C002D8H     SYMBOL    LABEL     ---     ---   Delay200us
      C002D2H     SYMBOL    LABEL     ---     ---   Del1
      C002CEH     SYMBOL    LABEL     ---     ---   Delay1ms
      ---         BLOCKEND  LVL=0     ---     ---   
      C01CD6H     PUBLIC    LABEL     ---     ---   IO_vInit

      C01CD6H     BLOCK     LVL=0     000AH   ---   IO_vInit
      C01CD6H     LINE      ---       ---     ---   #122
      C01CD6H     LINE      ---       ---     ---   #199
      C01CDEH     LINE      ---       ---     ---   #213
      ---         BLOCKEND  LVL=0     ---     ---   
      C00DE8H     PUBLIC    LABEL     ---     ---   CAN_vInit
      C0113CH     PUBLIC    LABEL     ---     ---   CAN_ubWriteFIFO
      C01426H     PUBLIC    LABEL     ---     ---   CAN_viSRN0
      C012ACH     PUBLIC    LABEL     ---     ---   CAN_ubReadFIFO
      C010D8H     PUBLIC    LABEL     ---     ---   CAN_vLoadData
      C00F80H     PUBLIC    LABEL     ---     ---   CAN_vGetMsgObj
      C010C4H     PUBLIC    LABEL     ---     ---   CAN_vTransmit
      E006A0H     PUBLIC    VAR       ---     ---   msgObj0x505
      E006B4H     SYMBOL    VAR       ---     ---   ubFIFOWritePtr
      E006B5H     SYMBOL    VAR       ---     ---   ubFIFOReadPtr

      C00DE8H     BLOCK     LVL=0     0198H   ---   CAN_vInit
      C00DE8H     BLOCK     LVL=1     0196H   ---   
      00008CH     SYMBOL    REG       ---     ---   i
      ---         BLOCKEND  LVL=1     ---     ---   
      C00DE8H     LINE      ---       ---     ---   #128
      C00DE8H     LINE      ---       ---     ---   #129
      C00DE8H     LINE      ---       ---     ---   #142
      C00DECH     LINE      ---       ---     ---   #144
      C00DEEH     LINE      ---       ---     ---   #146
      C00DF0H     LINE      ---       ---     ---   #155
      C00DFCH     LINE      ---       ---     ---   #162
      C00DFCH     LINE      ---       ---     ---   #164
      C00E08H     LINE      ---       ---     ---   #175
      C00E14H     LINE      ---       ---     ---   #179
      C00E1EH     LINE      ---       ---     ---   #186
L166 LINKER/LOCATER V5.25                                                             07/19/2019  21:28:00  PAGE 29


      C00E26H     LINE      ---       ---     ---   #187
      C00E30H     LINE      ---       ---     ---   #198
      C00E3CH     LINE      ---       ---     ---   #203
      C00E48H     LINE      ---       ---     ---   #204
      C00E52H     LINE      ---       ---     ---   #211
      C00E56H     LINE      ---       ---     ---   #212
      C00E5AH     LINE      ---       ---     ---   #221
      C00E66H     LINE      ---       ---     ---   #230
      C00E6AH     LINE      ---       ---     ---   #239
      C00E6EH     LINE      ---       ---     ---   #248
      C00E76H     LINE      ---       ---     ---   #256
      C00E98H     LINE      ---       ---     ---   #258
      C00EBAH     LINE      ---       ---     ---   #272
      C00EC6H     LINE      ---       ---     ---   #273
      C00ED0H     LINE      ---       ---     ---   #281
      C00EDCH     LINE      ---       ---     ---   #282
      C00EE6H     LINE      ---       ---     ---   #288
      C00EF2H     LINE      ---       ---     ---   #289
      C00EFEH     LINE      ---       ---     ---   #295
      C00F08H     LINE      ---       ---     ---   #296
      C00F0CH     LINE      ---       ---     ---   #300
      C00F10H     LINE      ---       ---     ---   #302
      C00F18H     LINE      ---       ---     ---   #311
      C00F24H     LINE      ---       ---     ---   #312
      C00F2EH     LINE      ---       ---     ---   #831
      C00F34H     LINE      ---       ---     ---   #840
      C00F38H     LINE      ---       ---     ---   #848
      C00F3AH     LINE      ---       ---     ---   #850
      C00F52H     LINE      ---       ---     ---   #851
      C00F64H     LINE      ---       ---     ---   #852
      C00F6AH     LINE      ---       ---     ---   #860
      C00F7EH     LINE      ---       ---     ---   #868
      ---         BLOCKEND  LVL=0     ---     ---   

      C00F80H     BLOCK     LVL=0     0144H   ---   CAN_vGetMsgObj
      000084H     SYMBOL    REG       ---     ---   ubObjNr
      00000AH     SYMBOL    REG       ---     ---   pstObj
      C00F84H     BLOCK     LVL=1     013EH   ---   
      00008EH     SYMBOL    REG       ---     ---   i
      ---         BLOCKEND  LVL=1     ---     ---   
      C00F80H     LINE      ---       ---     ---   #901
      C00F84H     LINE      ---       ---     ---   #902
      C00F84H     LINE      ---       ---     ---   #906
      C00F9AH     LINE      ---       ---     ---   #909
      C00F9EH     LINE      ---       ---     ---   #911
      C00FB8H     LINE      ---       ---     ---   #912
      C00FC0H     LINE      ---       ---     ---   #915
      C00FDCH     LINE      ---       ---     ---   #918
      C00FECH     LINE      ---       ---     ---   #921
      C01014H     LINE      ---       ---     ---   #923
      C0101EH     LINE      ---       ---     ---   #924
      C01020H     LINE      ---       ---     ---   #928
      C01038H     LINE      ---       ---     ---   #929
      C01038H     LINE      ---       ---     ---   #932
      C01054H     LINE      ---       ---     ---   #934
      C0106CH     LINE      ---       ---     ---   #935
      C0106EH     LINE      ---       ---     ---   #938
L166 LINKER/LOCATER V5.25                                                             07/19/2019  21:28:00  PAGE 30


      C01096H     LINE      ---       ---     ---   #939
      C01096H     LINE      ---       ---     ---   #942
      C010B2H     LINE      ---       ---     ---   #945
      C010C2H     LINE      ---       ---     ---   #947
      ---         BLOCKEND  LVL=0     ---     ---   

      C010C4H     BLOCK     LVL=0     0014H   ---   CAN_vTransmit
      000048H     SYMBOL    REG       ---     ---   ubObjNr
      C010C4H     LINE      ---       ---     ---   #976
      C010C4H     LINE      ---       ---     ---   #979
      C010D6H     LINE      ---       ---     ---   #981
      ---         BLOCKEND  LVL=0     ---     ---   

      C010D8H     BLOCK     LVL=0     0064H   ---   CAN_vLoadData
      000048H     SYMBOL    REG       ---     ---   ubObjNr
      000009H     SYMBOL    REG       ---     ---   ubpubData
      C010D8H     BLOCK     LVL=1     0062H   ---   
      00008EH     SYMBOL    REG       ---     ---   i
      ---         BLOCKEND  LVL=1     ---     ---   
      C010D8H     LINE      ---       ---     ---   #1012
      C010D8H     LINE      ---       ---     ---   #1013
      C010D8H     LINE      ---       ---     ---   #1016
      C010E8H     LINE      ---       ---     ---   #1018
      C010ECH     LINE      ---       ---     ---   #1020
      C01100H     LINE      ---       ---     ---   #1021
      C0111CH     LINE      ---       ---     ---   #1023
      C0112EH     LINE      ---       ---     ---   #1024
      C0113AH     LINE      ---       ---     ---   #1026
      ---         BLOCKEND  LVL=0     ---     ---   

      C0113CH     BLOCK     LVL=0     0170H   ---   CAN_ubWriteFIFO
      000048H     SYMBOL    REG       ---     ---   ubObjNr
      000009H     SYMBOL    REG       ---     ---   pstObj
      C0113CH     BLOCK     LVL=1     016EH   ---   
      00008EH     SYMBOL    REG       ---     ---   i
      000084H     SYMBOL    REG       ---     ---   j
      000086H     SYMBOL    REG       ---     ---   ubReturn
      ---         BLOCKEND  LVL=1     ---     ---   
      C0113CH     LINE      ---       ---     ---   #1066
      C0113CH     LINE      ---       ---     ---   #1067
      C0113CH     LINE      ---       ---     ---   #1071
      C0113EH     LINE      ---       ---     ---   #1073
      C01158H     LINE      ---       ---     ---   #1075
      C0115CH     LINE      ---       ---     ---   #1077
      C0115EH     LINE      ---       ---     ---   #1078
      C01172H     LINE      ---       ---     ---   #1080
      C01186H     LINE      ---       ---     ---   #1083
      C01198H     LINE      ---       ---     ---   #1084
      C0119AH     LINE      ---       ---     ---   #1088
      C011AEH     LINE      ---       ---     ---   #1089
      C011AEH     LINE      ---       ---     ---   #1091
      C011BCH     LINE      ---       ---     ---   #1093
      C011CCH     LINE      ---       ---     ---   #1095
      C011D4H     LINE      ---       ---     ---   #1097
      C011F4H     LINE      ---       ---     ---   #1098
      C01204H     LINE      ---       ---     ---   #1099
      C01206H     LINE      ---       ---     ---   #1102
L166 LINKER/LOCATER V5.25                                                             07/19/2019  21:28:00  PAGE 31


      C0122EH     LINE      ---       ---     ---   #1103
      C01238H     LINE      ---       ---     ---   #1104
      C01238H     LINE      ---       ---     ---   #1106
      C0124CH     LINE      ---       ---     ---   #1107
      C01268H     LINE      ---       ---     ---   #1109
      C0126CH     LINE      ---       ---     ---   #1111
      C01286H     LINE      ---       ---     ---   #1112
      C01296H     LINE      ---       ---     ---   #1114
      C012A6H     LINE      ---       ---     ---   #1116
      C012A8H     LINE      ---       ---     ---   #1117
      C012A8H     LINE      ---       ---     ---   #1119
      C012AAH     LINE      ---       ---     ---   #1121
      ---         BLOCKEND  LVL=0     ---     ---   

      C012ACH     BLOCK     LVL=0     017AH   ---   CAN_ubReadFIFO
      000048H     SYMBOL    REG       ---     ---   ubObjNr
      00000AH     SYMBOL    REG       ---     ---   pstObj
      C012AEH     BLOCK     LVL=1     0176H   ---   
      00008EH     SYMBOL    REG       ---     ---   i
      000082H     SYMBOL    REG       ---     ---   j
      000084H     SYMBOL    REG       ---     ---   ubReturn
      ---         BLOCKEND  LVL=1     ---     ---   
      C012ACH     LINE      ---       ---     ---   #1161
      C012AEH     LINE      ---       ---     ---   #1162
      C012AEH     LINE      ---       ---     ---   #1166
      C012B0H     LINE      ---       ---     ---   #1168
      C012CAH     LINE      ---       ---     ---   #1170
      C012CEH     LINE      ---       ---     ---   #1172
      C012D0H     LINE      ---       ---     ---   #1173
      C012E4H     LINE      ---       ---     ---   #1175
      C012EEH     LINE      ---       ---     ---   #1177
      C012FEH     LINE      ---       ---     ---   #1180
      C01310H     LINE      ---       ---     ---   #1181
      C01312H     LINE      ---       ---     ---   #1185
      C01326H     LINE      ---       ---     ---   #1186
      C01326H     LINE      ---       ---     ---   #1189
      C01332H     LINE      ---       ---     ---   #1191
      C0133EH     LINE      ---       ---     ---   #1192
      C01342H     LINE      ---       ---     ---   #1193
      C01342H     LINE      ---       ---     ---   #1195
      C01354H     LINE      ---       ---     ---   #1197
      C01358H     LINE      ---       ---     ---   #1199
      C01372H     LINE      ---       ---     ---   #1200
      C0137AH     LINE      ---       ---     ---   #1202
      C01396H     LINE      ---       ---     ---   #1204
      C013A6H     LINE      ---       ---     ---   #1206
      C013CEH     LINE      ---       ---     ---   #1208
      C013D8H     LINE      ---       ---     ---   #1209
      C013DAH     LINE      ---       ---     ---   #1212
      C013F2H     LINE      ---       ---     ---   #1213
      C013F2H     LINE      ---       ---     ---   #1215
      C01402H     LINE      ---       ---     ---   #1218
      C01412H     LINE      ---       ---     ---   #1220
      C0141CH     LINE      ---       ---     ---   #1221
      C01420H     LINE      ---       ---     ---   #1222
      C01420H     LINE      ---       ---     ---   #1223
      C01422H     LINE      ---       ---     ---   #1224
L166 LINKER/LOCATER V5.25                                                             07/19/2019  21:28:00  PAGE 32


      C01422H     LINE      ---       ---     ---   #1226
      C01424H     LINE      ---       ---     ---   #1228
      ---         BLOCKEND  LVL=0     ---     ---   

      C01426H     BLOCK     LVL=0     009AH   ---   CAN_viSRN0
      C0142CH     BLOCK     LVL=1     0090H   ---   
      000005H     SYMBOL    REG       ---     ---   uwSRN0NodeHandler
      000005H     SYMBOL    REG       ---     ---   uwSRN0ObjHandler
      ---         BLOCKEND  LVL=1     ---     ---   
      C01426H     LINE      ---       ---     ---   #1254
      C0142CH     LINE      ---       ---     ---   #1255
      C0142CH     LINE      ---       ---     ---   #1268
      C01434H     LINE      ---       ---     ---   #1270
      C01438H     LINE      ---       ---     ---   #1275
      C01444H     LINE      ---       ---     ---   #1280
      C01444H     LINE      ---       ---     ---   #1282
      C01448H     LINE      ---       ---     ---   #1286
      C01454H     LINE      ---       ---     ---   #1291
      C01454H     LINE      ---       ---     ---   #1294
      C0145EH     LINE      ---       ---     ---   #1295
      C01468H     LINE      ---       ---     ---   #1297
      C0146AH     LINE      ---       ---     ---   #1299
      C01474H     LINE      ---       ---     ---   #1301
      C01474H     LINE      ---       ---     ---   #1303
      C0147CH     LINE      ---       ---     ---   #1305
      C01480H     LINE      ---       ---     ---   #1308
      C0148AH     LINE      ---       ---     ---   #1311
      C0148AH     LINE      ---       ---     ---   #1317
      C0148AH     LINE      ---       ---     ---   #1327
      C0148AH     LINE      ---       ---     ---   #1335
      C0148AH     LINE      ---       ---     ---   #1337
      C0148AH     LINE      ---       ---     ---   #1339
      C01496H     LINE      ---       ---     ---   #1341
      C01496H     LINE      ---       ---     ---   #1344
      C014A2H     LINE      ---       ---     ---   #1345
      C014AEH     LINE      ---       ---     ---   #1351
      C014AEH     LINE      ---       ---     ---   #1353
      C014AEH     LINE      ---       ---     ---   #1359
      C014AEH     LINE      ---       ---     ---   #1361
      C014AEH     LINE      ---       ---     ---   #1367
      C014BCH     LINE      ---       ---     ---   #1374
      ---         BLOCKEND  LVL=0     ---     ---   
      C014C4H     PUBLIC    LABEL     ---     ---   ?C_FPADD
      C01502H     PUBLIC    LABEL     ---     ---   ?C_FPXSUB
      C014C0H     PUBLIC    LABEL     ---     ---   ?C_FPSUB

      C014C0H     BLOCK     LVL=0     00E8H   ---   ?C_FPSUB
      ---         BLOCKEND  LVL=0     ---     ---   
      C015A8H     PUBLIC    LABEL     ---     ---   ?C_FPMUL

      C015A8H     BLOCK     LVL=0     0094H   ---   ?C_FPMUL
      ---         BLOCKEND  LVL=0     ---     ---   
      C0163CH     PUBLIC    LABEL     ---     ---   ?C_CASTF

      C0163CH     BLOCK     LVL=0     005CH   ---   ?C_CASTF
      ---         BLOCKEND  LVL=0     ---     ---   
      C01698H     PUBLIC    LABEL     ---     ---   ?C_FCAST
L166 LINKER/LOCATER V5.25                                                             07/19/2019  21:28:00  PAGE 33



      C01698H     BLOCK     LVL=0     0046H   ---   ?C_FCAST
      ---         BLOCKEND  LVL=0     ---     ---   
      C016DEH     PUBLIC    LABEL     ---     ---   ?C_FPGETOPN
      C01704H     PUBLIC    LABEL     ---     ---   ?C_FPNANRSL
      C0170CH     PUBLIC    LABEL     ---     ---   ?C_FPINFRSL
      C0172EH     PUBLIC    LABEL     ---     ---   ?C_FPNOERR
      C01724H     PUBLIC    LABEL     ---     ---   ?C_FPRSLNR
      C01718H     PUBLIC    LABEL     ---     ---   ?C_FPOPRSL
      C0173CH     PUBLIC    LABEL     ---     ---   ?C_FPZERRSL
      C0173CH     PUBLIC    LABEL     ---     ---   ?C_FPUNFRS

      C016DEH     BLOCK     LVL=0     0026H   ---   ?C_FPGETOPN
      ---         BLOCKEND  LVL=0     ---     ---   

      C01704H     BLOCK     LVL=0     0008H   ---   ?C_FPNANRSL
      ---         BLOCKEND  LVL=0     ---     ---   

      C0170CH     BLOCK     LVL=0     000CH   ---   ?C_FPINFRSL
      ---         BLOCKEND  LVL=0     ---     ---   

      C01718H     BLOCK     LVL=0     0022H   ---   ?C_FPOPRSL
      ---         BLOCKEND  LVL=0     ---     ---   

      C0173AH     BLOCK     LVL=0     0002H   ---   EXIT
      ---         BLOCKEND  LVL=0     ---     ---   

      C0173CH     BLOCK     LVL=0     0006H   ---   ?C_FPZERRSL
      ---         BLOCKEND  LVL=0     ---     ---   
      C0009CH     PUBLIC    VAR       ---     ---   ?C_ENDINIT



FUNCTION REGISTER MASKS


FUNCTION . . . . . . . . . . . REG MASK
=======================================




*** WARNING L20: DATA TYPES DIFFERENT
    SYMBOL:  taskInit
    MODULE:  ..\bin\main.obj (MAIN)
   DEFINED:  ..\bin\task.obj (TASK)

*** WARNING L20: DATA TYPES DIFFERENT
    SYMBOL:  SCS_StartXtalOsc
    MODULE:  ..\bin\clk.obj (CLK)
   DEFINED:  ..\bin\SCS.obj (SCS)

*** WARNING L20: DATA TYPES DIFFERENT
    SYMBOL:  SCS_SwitchSystemClock
    MODULE:  ..\bin\clk.obj (CLK)
   DEFINED:  ..\bin\SCS.obj (SCS)

L166 LINKER/LOCATER V5.25                                                             07/19/2019  21:28:00  PAGE 34


*** WARNING L20: DATA TYPES DIFFERENT
    SYMBOL:  SCS_SwitchToHighPrecBandgap
    MODULE:  ..\bin\clk.obj (CLK)
   DEFINED:  ..\bin\SCS.obj (SCS)

Program Size: data=2249(near=2249) const=201(near=21) code=7184
L166 RUN COMPLETE.  4 WARNING(S),  0 ERROR(S)
